---
triple:          'arm64-apple-darwin'
binary-path:     main
relocations:
  - { offsetInCU: 0x3F, offset: 0x3F, size: 0x8, addend: 0x0, symName: _debug, symObjAddr: 0x112920, symBinAddr: 0x10006C900, symSize: 0x0 }
  - { offsetInCU: 0x100A4, offset: 0x100A4, size: 0x8, addend: 0x0, symName: __ZNSt3__17advanceB8ue170006INS_21__tree_const_iteratorIP5StatePNS_11__tree_nodeIS3_PvEElEEllvEEvRT_T0_, symObjAddr: 0x100C8, symBinAddr: 0x100011E90, symSize: 0x38 }
  - { offsetInCU: 0x10135, offset: 0x10135, size: 0x8, addend: 0x0, symName: __ZNSt3__124__put_character_sequenceB8ue170006IcNS_11char_traitsIcEEEERNS_13basic_ostreamIT_T0_EES7_PKS4_m, symObjAddr: 0x27E2C, symBinAddr: 0x100029BF4, symSize: 0x74C }
  - { offsetInCU: 0x1615F, offset: 0x1615F, size: 0x8, addend: 0x0, symName: __ZNSt3__17advanceB8ue170006IPP5StatellvEEvRT_T0_, symObjAddr: 0x4E6B8, symBinAddr: 0x100050480, symSize: 0x38 }
  - { offsetInCU: 0x16FFC, offset: 0x16FFC, size: 0x8, addend: 0x0, symName: __ZNSt3__1lsB8ue170006INS_11char_traitsIcEEEERNS_13basic_ostreamIcT_EES6_c, symObjAddr: 0x28A0, symBinAddr: 0x100004668, symSize: 0x220 }
  - { offsetInCU: 0x17047, offset: 0x17047, size: 0x8, addend: 0x0, symName: __ZNSt3__14endlB8ue170006IcNS_11char_traitsIcEEEERNS_13basic_ostreamIT_T0_EES7_, symObjAddr: 0x2AEC, symBinAddr: 0x1000048B4, symSize: 0xD4 }
  - { offsetInCU: 0x17662, offset: 0x17662, size: 0x8, addend: 0x0, symName: __ZNSt3__1eqB8ue170006ERKNS_21__tree_const_iteratorImPNS_11__tree_nodeImPvEElEES7_, symObjAddr: 0x3A10, symBinAddr: 0x1000057D8, symSize: 0xB8 }
  - { offsetInCU: 0x17814, offset: 0x17814, size: 0x8, addend: 0x0, symName: __ZNSt3__1lsB8ue170006IcNS_11char_traitsIcEENS_9allocatorIcEEEERNS_13basic_ostreamIT_T0_EES9_RKNS_12basic_stringIS6_S7_T1_EE, symObjAddr: 0x6368, symBinAddr: 0x100008130, symSize: 0x4C }
  - { offsetInCU: 0x1786C, offset: 0x1786C, size: 0x8, addend: 0x0, symName: __ZNSt3__1lsB8ue170006INS_11char_traitsIcEEEERNS_13basic_ostreamIcT_EES6_PKc, symObjAddr: 0x63B4, symBinAddr: 0x10000817C, symSize: 0x48 }
  - { offsetInCU: 0x178B2, offset: 0x178B2, size: 0x8, addend: 0x0, symName: __ZNSt3__1neB8ue170006ERKNS_14__map_iteratorINS_15__tree_iteratorINS_12__value_typeIciEEPNS_11__tree_nodeIS3_PvEElEEEESB_, symObjAddr: 0x64CC, symBinAddr: 0x100008294, symSize: 0x30 }
  - { offsetInCU: 0x178EF, offset: 0x178EF, size: 0x8, addend: 0x0, symName: __ZNSt3__1neB8ue170006ERKNS_21__tree_const_iteratorIP5StatePNS_11__tree_nodeIS2_PvEElEES9_, symObjAddr: 0x7F3C, symBinAddr: 0x100009D04, symSize: 0x34 }
  - { offsetInCU: 0x1792C, offset: 0x1792C, size: 0x8, addend: 0x0, symName: __ZNSt3__1neB8ue170006IPP5StateEEbRKNS_11__wrap_iterIT_EES8_, symObjAddr: 0x8F00, symBinAddr: 0x10000ACC8, symSize: 0x34 }
  - { offsetInCU: 0x1796F, offset: 0x1796F, size: 0x8, addend: 0x0, symName: __ZNSt3__116__tree_next_iterB8ue170006IPNS_15__tree_end_nodeIPNS_16__tree_node_baseIPvEEEES5_EET_T0_, symObjAddr: 0xC278, symBinAddr: 0x10000E040, symSize: 0x164 }
  - { offsetInCU: 0x179AD, offset: 0x179AD, size: 0x8, addend: 0x0, symName: __ZNSt3__110__tree_minB8ue170006IPNS_16__tree_node_baseIPvEEEET_S5_, symObjAddr: 0xC3DC, symBinAddr: 0x10000E1A4, symSize: 0xC4 }
  - { offsetInCU: 0x179E2, offset: 0x179E2, size: 0x8, addend: 0x0, symName: __ZNSt3__120__tree_is_left_childB8ue170006IPNS_16__tree_node_baseIPvEEEEbT_, symObjAddr: 0xC4A0, symBinAddr: 0x10000E268, symSize: 0xB8 }
  - { offsetInCU: 0x17A4A, offset: 0x17A4A, size: 0x8, addend: 0x0, symName: __ZNSt3__1eqB8ue170006ERKNS_21__tree_const_iteratorIP5StatePNS_11__tree_nodeIS2_PvEElEES9_, symObjAddr: 0xF314, symBinAddr: 0x1000110DC, symSize: 0xB8 }
  - { offsetInCU: 0x17A87, offset: 0x17A87, size: 0x8, addend: 0x0, symName: __ZNSt3__14nextB8ue170006INS_21__tree_const_iteratorIP5StatePNS_11__tree_nodeIS3_PvEElEEEENS_9enable_ifIXsr29__has_input_iterator_categoryIT_EE5valueESA_E4typeESA_NS_15iterator_traitsISA_E15difference_typeE, symObjAddr: 0xFB4C, symBinAddr: 0x100011914, symSize: 0x288 }
  - { offsetInCU: 0x17ACF, offset: 0x17ACF, size: 0x8, addend: 0x0, symName: __ZNSt3__116__tree_prev_iterB8ue170006IPNS_16__tree_node_baseIPvEEPNS_15__tree_end_nodeIS4_EEEET_T0_, symObjAddr: 0xFE70, symBinAddr: 0x100011C38, symSize: 0xFC }
  - { offsetInCU: 0x17B1B, offset: 0x17B1B, size: 0x8, addend: 0x0, symName: __ZNSt3__110__tree_maxB8ue170006IPNS_16__tree_node_baseIPvEEEET_S5_, symObjAddr: 0xFF6C, symBinAddr: 0x100011D34, symSize: 0xCC }
  - { offsetInCU: 0x17B50, offset: 0x17B50, size: 0x8, addend: 0x0, symName: __ZNSt3__121__convert_to_integralB8ue170006El, symObjAddr: 0x10100, symBinAddr: 0x100011EC8, symSize: 0x14 }
  - { offsetInCU: 0x17B7C, offset: 0x17B7C, size: 0x8, addend: 0x0, symName: __ZNSt3__19__advanceB8ue170006INS_21__tree_const_iteratorIP5StatePNS_11__tree_nodeIS3_PvEElEEEEvRT_NS_15iterator_traitsIS9_E15difference_typeENS_26bidirectional_iterator_tagE, symObjAddr: 0x10114, symBinAddr: 0x100011EDC, symSize: 0xA4 }
  - { offsetInCU: 0x17BE3, offset: 0x17BE3, size: 0x8, addend: 0x0, symName: __ZNSt3__130__libcpp_is_constant_evaluatedB8ue170006Ev, symObjAddr: 0x1048C, symBinAddr: 0x100012254, symSize: 0xC }
  - { offsetInCU: 0x17C00, offset: 0x17C00, size: 0x8, addend: 0x0, symName: __ZNSt3__117__libcpp_allocateB8ue170006Emm, symObjAddr: 0x10498, symBinAddr: 0x100012260, symSize: 0x28 }
  - { offsetInCU: 0x17C3D, offset: 0x17C3D, size: 0x8, addend: 0x0, symName: __ZNSt3__121__libcpp_operator_newB8ue170006IJmEEEPvDpT_, symObjAddr: 0x104D8, symBinAddr: 0x1000122A0, symSize: 0x24 }
  - { offsetInCU: 0x17C76, offset: 0x17C76, size: 0x8, addend: 0x0, symName: __ZNSt3__127__tree_balance_after_insertB8ue170006IPNS_16__tree_node_baseIPvEEEEvT_S5_, symObjAddr: 0x10AB0, symBinAddr: 0x100012878, symSize: 0x8A8 }
  - { offsetInCU: 0x17CEA, offset: 0x17CEA, size: 0x8, addend: 0x0, symName: __ZNSt3__118__tree_left_rotateB8ue170006IPNS_16__tree_node_baseIPvEEEEvT_, symObjAddr: 0x11380, symBinAddr: 0x100013148, symSize: 0x388 }
  - { offsetInCU: 0x17D2C, offset: 0x17D2C, size: 0x8, addend: 0x0, symName: __ZNSt3__119__tree_right_rotateB8ue170006IPNS_16__tree_node_baseIPvEEEEvT_, symObjAddr: 0x11708, symBinAddr: 0x1000134D0, symSize: 0x354 }
  - { offsetInCU: 0x17D6E, offset: 0x17D6E, size: 0x8, addend: 0x0, symName: __ZNSt3__119__libcpp_deallocateB8ue170006EPvmm, symObjAddr: 0x11E98, symBinAddr: 0x100013C60, symSize: 0x30 }
  - { offsetInCU: 0x17DB6, offset: 0x17DB6, size: 0x8, addend: 0x0, symName: __ZNSt3__127__do_deallocate_handle_sizeB8ue170006IJEEEvPvmDpT_, symObjAddr: 0x11EC8, symBinAddr: 0x100013C90, symSize: 0x28 }
  - { offsetInCU: 0x17DF4, offset: 0x17DF4, size: 0x8, addend: 0x0, symName: __ZNSt3__124__libcpp_operator_deleteB8ue170006IJPvEEEvDpT_, symObjAddr: 0x11EF0, symBinAddr: 0x100013CB8, symSize: 0x24 }
  - { offsetInCU: 0x17E29, offset: 0x17E29, size: 0x8, addend: 0x0, symName: __ZNSt3__1neB8ue170006ERKNS_16__deque_iteratorIcPcRcPS1_lLl4096EEES6_, symObjAddr: 0x13990, symBinAddr: 0x100015758, symSize: 0x34 }
  - { offsetInCU: 0x17E66, offset: 0x17E66, size: 0x8, addend: 0x0, symName: __ZNSt3__1eqB8ue170006ERKNS_16__deque_iteratorIcPcRcPS1_lLl4096EEES6_, symObjAddr: 0x14180, symBinAddr: 0x100015F48, symSize: 0xC0 }
  - { offsetInCU: 0x17EA3, offset: 0x17EA3, size: 0x8, addend: 0x0, symName: __ZNSt3__112__to_addressB8ue170006IcEEPT_S2_, symObjAddr: 0x14AC4, symBinAddr: 0x10001688C, symSize: 0x14 }
  - { offsetInCU: 0x17ED8, offset: 0x17ED8, size: 0x8, addend: 0x0, symName: __ZNSt3__112__to_addressB8ue170006IPcEEPT_S3_, symObjAddr: 0x15100, symBinAddr: 0x100016EC8, symSize: 0x14 }
  - { offsetInCU: 0x17F0D, offset: 0x17F0D, size: 0x8, addend: 0x0, symName: __ZNSt3__1eqB8ue170006ERKNS_15__tree_iteratorIP5StatePNS_11__tree_nodeIS2_PvEElEES9_, symObjAddr: 0x15A98, symBinAddr: 0x100017860, symSize: 0xB8 }
  - { offsetInCU: 0x17F4A, offset: 0x17F4A, size: 0x8, addend: 0x0, symName: __ZNSt3__1neB8ue170006ERKNS_15__tree_iteratorIP5StatePNS_11__tree_nodeIS2_PvEElEES9_, symObjAddr: 0x16140, symBinAddr: 0x100017F08, symSize: 0x34 }
  - { offsetInCU: 0x17F87, offset: 0x17F87, size: 0x8, addend: 0x0, symName: __ZNSt3__113__tree_removeB8ue170006IPNS_16__tree_node_baseIPvEEEEvT_S5_, symObjAddr: 0x16640, symBinAddr: 0x100018408, symSize: 0x1ED4 }
  - { offsetInCU: 0x18005, offset: 0x18005, size: 0x8, addend: 0x0, symName: __ZNSt3__111__tree_nextB8ue170006IPNS_16__tree_node_baseIPvEEEET_S5_, symObjAddr: 0x18514, symBinAddr: 0x10001A2DC, symSize: 0xFC }
  - { offsetInCU: 0x1803A, offset: 0x1803A, size: 0x8, addend: 0x0, symName: __ZNSt3__1neB8ue170006ERKNS_21__tree_const_iteratorIiPNS_11__tree_nodeIiPvEElEES7_, symObjAddr: 0x19534, symBinAddr: 0x10001B2FC, symSize: 0x34 }
  - { offsetInCU: 0x18077, offset: 0x18077, size: 0x8, addend: 0x0, symName: __ZNSt3__14findB8ue170006INS_21__tree_const_iteratorIiPNS_11__tree_nodeIiPvEElEEiEET_S7_S7_RKT0_, symObjAddr: 0x19568, symBinAddr: 0x10001B330, symSize: 0x620 }
  - { offsetInCU: 0x180ED, offset: 0x180ED, size: 0x8, addend: 0x0, symName: __ZNSt3__1eqB8ue170006ERKNS_21__tree_const_iteratorIiPNS_11__tree_nodeIiPvEElEES7_, symObjAddr: 0x1AFA8, symBinAddr: 0x10001CD70, symSize: 0xB8 }
  - { offsetInCU: 0x1812A, offset: 0x1812A, size: 0x8, addend: 0x0, symName: __ZNSt3__113__rewrap_iterB8ue170006INS_21__tree_const_iteratorIiPNS_11__tree_nodeIiPvEElEES6_NS_18__unwrap_iter_implIS6_Lb0EEEEET_S9_T0_, symObjAddr: 0x1B060, symBinAddr: 0x10001CE28, symSize: 0x40C }
  - { offsetInCU: 0x18187, offset: 0x18187, size: 0x8, addend: 0x0, symName: __ZNSt3__111__find_implB8ue170006INS_21__tree_const_iteratorIiPNS_11__tree_nodeIiPvEElEES6_iNS_10__identityEEET_S8_T0_RKT1_RT2_, symObjAddr: 0x1B46C, symBinAddr: 0x10001D234, symSize: 0x414 }
  - { offsetInCU: 0x1820B, offset: 0x1820B, size: 0x8, addend: 0x0, symName: __ZNSt3__113__unwrap_iterB8ue170006INS_21__tree_const_iteratorIiPNS_11__tree_nodeIiPvEElEENS_18__unwrap_iter_implIS6_Lb0EEELi0EEEDTclsrT0_8__unwrapclsr3stdE7declvalIT_EEEESA_, symObjAddr: 0x1B880, symBinAddr: 0x10001D648, symSize: 0x30C }
  - { offsetInCU: 0x1829B, offset: 0x1829B, size: 0x8, addend: 0x0, symName: __ZNSt3__18__invokeB8ue170006IRNS_10__identityEJRKiEEEDTclclsr3stdE7declvalIT_EEspclsr3stdE7declvalIT0_EEEEOS5_DpOS6_, symObjAddr: 0x1BE60, symBinAddr: 0x10001DC28, symSize: 0x2C }
  - { offsetInCU: 0x18337, offset: 0x18337, size: 0x8, addend: 0x0, symName: __ZNSt3__1eqB8ue170006ERKNS_15__tree_iteratorIiPNS_11__tree_nodeIiPvEElEES7_, symObjAddr: 0x1F968, symBinAddr: 0x100021730, symSize: 0xB8 }
  - { offsetInCU: 0x18374, offset: 0x18374, size: 0x8, addend: 0x0, symName: __ZNSt3__1neB8ue170006ERKNS_15__tree_iteratorIiPNS_11__tree_nodeIiPvEElEES7_, symObjAddr: 0x20010, symBinAddr: 0x100021DD8, symSize: 0x34 }
  - { offsetInCU: 0x183B1, offset: 0x183B1, size: 0x8, addend: 0x0, symName: __ZNSt3__1neB8ue170006ERKNS_21__hash_const_iteratorIPNS_11__hash_nodeIiPvEEEES7_, symObjAddr: 0x216D8, symBinAddr: 0x1000234A0, symSize: 0x34 }
  - { offsetInCU: 0x183EE, offset: 0x183EE, size: 0x8, addend: 0x0, symName: __ZNSt3__1eqB8ue170006ERKNS_21__hash_const_iteratorIPNS_11__hash_nodeIiPvEEEES7_, symObjAddr: 0x21FC8, symBinAddr: 0x100023D90, symSize: 0xB8 }
  - { offsetInCU: 0x1845E, offset: 0x1845E, size: 0x8, addend: 0x0, symName: __ZNSt3__116__constrain_hashB8ue170006Emm, symObjAddr: 0x23C7C, symBinAddr: 0x100025A44, symSize: 0x98 }
  - { offsetInCU: 0x18498, offset: 0x18498, size: 0x8, addend: 0x0, symName: __ZNSt3__13maxB8ue170006ImEERKT_S3_S3_, symObjAddr: 0x25C28, symBinAddr: 0x1000279F0, symSize: 0x2C }
  - { offsetInCU: 0x184DB, offset: 0x184DB, size: 0x8, addend: 0x0, symName: __ZNSt3__116__is_hash_power2B8ue170006Em, symObjAddr: 0x25C54, symBinAddr: 0x100027A1C, symSize: 0x50 }
  - { offsetInCU: 0x18525, offset: 0x18525, size: 0x8, addend: 0x0, symName: __ZNSt3__116__next_hash_pow2B8ue170006Em, symObjAddr: 0x273F0, symBinAddr: 0x1000291B8, symSize: 0x6C }
  - { offsetInCU: 0x1856D, offset: 0x1856D, size: 0x8, addend: 0x0, symName: __ZNSt3__112__libcpp_clzB8ue170006Em, symObjAddr: 0x27658, symBinAddr: 0x100029420, symSize: 0x1C }
  - { offsetInCU: 0x18599, offset: 0x18599, size: 0x8, addend: 0x0, symName: __ZNSt3__13maxB8ue170006ImNS_6__lessIvvEEEERKT_S5_S5_T0_, symObjAddr: 0x27674, symBinAddr: 0x10002943C, symSize: 0x1E8 }
  - { offsetInCU: 0x1863E, offset: 0x1863E, size: 0x8, addend: 0x0, symName: __ZNSt3__116__pad_and_outputB8ue170006IcNS_11char_traitsIcEEEENS_19ostreambuf_iteratorIT_T0_EES6_PKS4_S8_S8_RNS_8ios_baseES4_, symObjAddr: 0x28654, symBinAddr: 0x10002A41C, symSize: 0x774 }
  - { offsetInCU: 0x1871B, offset: 0x1871B, size: 0x8, addend: 0x0, symName: __ZNSt3__112__to_addressB8ue170006IKcEEPT_S3_, symObjAddr: 0x295FC, symBinAddr: 0x10002B3C4, symSize: 0x14 }
  - { offsetInCU: 0x18783, offset: 0x18783, size: 0x8, addend: 0x0, symName: __ZNSt3__19use_facetB8ue170006INS_5ctypeIcEEEERKT_RKNS_6localeE, symObjAddr: 0x29C24, symBinAddr: 0x10002B9EC, symSize: 0x2C }
  - { offsetInCU: 0x18C50, offset: 0x18C50, size: 0x8, addend: 0x0, symName: __ZNSt3__118__constexpr_strlenB8ue170006EPKc, symObjAddr: 0x29DA8, symBinAddr: 0x10002BB70, symSize: 0x24 }
  - { offsetInCU: 0x18C7C, offset: 0x18C7C, size: 0x8, addend: 0x0, symName: __ZNSt3__112__to_addressB8ue170006I8FragmentEEPT_S3_, symObjAddr: 0x2BC78, symBinAddr: 0x10002DA40, symSize: 0x14 }
  - { offsetInCU: 0x18CE4, offset: 0x18CE4, size: 0x8, addend: 0x0, symName: __ZNSt3__13minB8ue170006ImEERKT_S3_S3_, symObjAddr: 0x2DC48, symBinAddr: 0x10002FA10, symSize: 0x2C }
  - { offsetInCU: 0x18F28, offset: 0x18F28, size: 0x8, addend: 0x0, symName: __ZNSt3__13minB8ue170006ImNS_6__lessIvvEEEERKT_S5_S5_T0_, symObjAddr: 0x2DCD4, symBinAddr: 0x10002FA9C, symSize: 0x1E8 }
  - { offsetInCU: 0x18F88, offset: 0x18F88, size: 0x8, addend: 0x0, symName: __ZNSt3__120__throw_length_errorB8ue170006EPKc, symObjAddr: 0x2DF10, symBinAddr: 0x10002FCD8, symSize: 0x68 }
  - { offsetInCU: 0x18FB2, offset: 0x18FB2, size: 0x8, addend: 0x0, symName: __ZNSt3__119__allocate_at_leastB8ue170006INS_9allocatorI8FragmentEEEENS_19__allocation_resultINS_16allocator_traitsIT_E7pointerEEERS6_m, symObjAddr: 0x2E594, symBinAddr: 0x10003035C, symSize: 0x28C }
  - { offsetInCU: 0x18FF7, offset: 0x18FF7, size: 0x8, addend: 0x0, symName: __ZNSt3__142__uninitialized_allocator_move_if_noexceptB8ue170006INS_9allocatorI8FragmentEENS_16reverse_iteratorIPS2_EES6_S2_vEET1_RT_T0_SA_S7_, symObjAddr: 0x2EA5C, symBinAddr: 0x100030824, symSize: 0x550 }
  - { offsetInCU: 0x19081, offset: 0x19081, size: 0x8, addend: 0x0, symName: __ZNSt3__14swapB8ue170006IP8FragmentEEvRT_S4_, symObjAddr: 0x2F044, symBinAddr: 0x100030E0C, symSize: 0x134 }
  - { offsetInCU: 0x190D2, offset: 0x190D2, size: 0x8, addend: 0x0, symName: __ZNSt3__1neB8ue170006IP8FragmentS2_EEbRKNS_16reverse_iteratorIT_EERKNS3_IT0_EE, symObjAddr: 0x2F24C, symBinAddr: 0x100031014, symSize: 0x48 }
  - { offsetInCU: 0x19143, offset: 0x19143, size: 0x8, addend: 0x0, symName: __ZNSt3__114__construct_atB8ue170006I8FragmentJS1_EPS1_EEPT_S4_DpOT0_, symObjAddr: 0x2F294, symBinAddr: 0x10003105C, symSize: 0x40 }
  - { offsetInCU: 0x191B3, offset: 0x191B3, size: 0x8, addend: 0x0, symName: __ZNSt3__112__to_addressB8ue170006INS_16reverse_iteratorIP8FragmentEEvEEu7__decayIDTclsr19__to_address_helperIT_EE6__callclsr3stdE7declvalIRKS5_EEEEES7_, symObjAddr: 0x2F2D4, symBinAddr: 0x10003109C, symSize: 0x24 }
  - { offsetInCU: 0x191E9, offset: 0x191E9, size: 0x8, addend: 0x0, symName: __ZNSt3__14moveB8ue170006INS_16reverse_iteratorIP8FragmentEES4_EET0_T_S6_S5_, symObjAddr: 0x2F3D8, symBinAddr: 0x1000311A0, symSize: 0x4B0 }
  - { offsetInCU: 0x19279, offset: 0x19279, size: 0x8, addend: 0x0, symName: __ZNSt3__16__moveB8ue170006INS_17_ClassicAlgPolicyENS_16reverse_iteratorIP8FragmentEES5_S5_EENS_4pairIT0_T2_EES7_T1_S8_, symObjAddr: 0x2F904, symBinAddr: 0x1000316CC, symSize: 0x424 }
  - { offsetInCU: 0x192F1, offset: 0x192F1, size: 0x8, addend: 0x0, symName: __ZNSt3__123__dispatch_copy_or_moveB8ue170006INS_17_ClassicAlgPolicyENS_11__move_loopIS1_EENS_14__move_trivialENS_16reverse_iteratorIP8FragmentEES8_S8_EENS_4pairIT2_T4_EESA_T3_SB_, symObjAddr: 0x2FD28, symBinAddr: 0x100031AF0, symSize: 0x424 }
  - { offsetInCU: 0x1937B, offset: 0x1937B, size: 0x8, addend: 0x0, symName: __ZNSt3__121__unwrap_and_dispatchB8ue170006INS_10__overloadINS_11__move_loopINS_17_ClassicAlgPolicyEEENS_14__move_trivialEEENS_16reverse_iteratorIP8FragmentEESA_SA_Li0EEENS_4pairIT0_T2_EESC_T1_SD_, symObjAddr: 0x3014C, symBinAddr: 0x100031F14, symSize: 0x880 }
  - { offsetInCU: 0x1941F, offset: 0x1941F, size: 0x8, addend: 0x0, symName: __ZNSt3__114__unwrap_rangeB8ue170006INS_16reverse_iteratorIP8FragmentEES4_EENS_4pairIT0_S6_EET_S8_, symObjAddr: 0x309CC, symBinAddr: 0x100032794, symSize: 0x448 }
  - { offsetInCU: 0x195BA, offset: 0x195BA, size: 0x8, addend: 0x0, symName: __ZNSt3__113__unwrap_iterB8ue170006INS_16reverse_iteratorIP8FragmentEENS_18__unwrap_iter_implIS4_Lb0EEELi0EEEDTclsrT0_8__unwrapclsr3stdE7declvalIT_EEEES8_, symObjAddr: 0x31158, symBinAddr: 0x100032F20, symSize: 0x2EC }
  - { offsetInCU: 0x19602, offset: 0x19602, size: 0x8, addend: 0x0, symName: __ZNSt3__19make_pairB8ue170006INS_16reverse_iteratorIP8FragmentEES4_EENS_4pairINS_18__unwrap_ref_decayIT_E4typeENS6_IT0_E4typeEEEOS7_OSA_, symObjAddr: 0x31444, symBinAddr: 0x10003320C, symSize: 0x38 }
  - { offsetInCU: 0x19651, offset: 0x19651, size: 0x8, addend: 0x0, symName: __ZNSt3__114__rewrap_rangeB8ue170006INS_16reverse_iteratorIP8FragmentEES4_EET_S5_T0_, symObjAddr: 0x3147C, symBinAddr: 0x100033244, symSize: 0x3D4 }
  - { offsetInCU: 0x196A5, offset: 0x196A5, size: 0x8, addend: 0x0, symName: __ZNSt3__113__rewrap_iterB8ue170006INS_16reverse_iteratorIP8FragmentEES4_NS_18__unwrap_iter_implIS4_Lb0EEEEET_S7_T0_, symObjAddr: 0x31850, symBinAddr: 0x100033618, symSize: 0x3FC }
  - { offsetInCU: 0x197E7, offset: 0x197E7, size: 0x8, addend: 0x0, symName: __ZNSt3__1neB8ue170006ERKNS_15__tree_iteratorImPNS_11__tree_nodeImPvEElEES7_, symObjAddr: 0x33A28, symBinAddr: 0x1000357F0, symSize: 0x34 }
  - { offsetInCU: 0x19824, offset: 0x19824, size: 0x8, addend: 0x0, symName: __ZNSt3__1eqB8ue170006ERKNS_15__tree_iteratorImPNS_11__tree_nodeImPvEElEES7_, symObjAddr: 0x33E10, symBinAddr: 0x100035BD8, symSize: 0xB8 }
  - { offsetInCU: 0x19D26, offset: 0x19D26, size: 0x8, addend: 0x0, symName: __ZNSt3__14swapB8ue170006IPPcEEvRT_S4_, symObjAddr: 0x3E3D8, symBinAddr: 0x1000401A0, symSize: 0x134 }
  - { offsetInCU: 0x19D77, offset: 0x19D77, size: 0x8, addend: 0x0, symName: __ZNSt3__14moveB8ue170006IPPcS2_EET0_T_S4_S3_, symObjAddr: 0x3E5B4, symBinAddr: 0x10004037C, symSize: 0x254 }
  - { offsetInCU: 0x19DD4, offset: 0x19DD4, size: 0x8, addend: 0x0, symName: __ZNSt3__16__moveB8ue170006INS_17_ClassicAlgPolicyEPPcS3_S3_EENS_4pairIT0_T2_EES5_T1_S6_, symObjAddr: 0x3EC44, symBinAddr: 0x100040A0C, symSize: 0x22C }
  - { offsetInCU: 0x19E43, offset: 0x19E43, size: 0x8, addend: 0x0, symName: __ZNSt3__123__dispatch_copy_or_moveB8ue170006INS_17_ClassicAlgPolicyENS_11__move_loopIS1_EENS_14__move_trivialEPPcS6_S6_EENS_4pairIT2_T4_EES8_T3_S9_, symObjAddr: 0x3EE70, symBinAddr: 0x100040C38, symSize: 0x22C }
  - { offsetInCU: 0x19EC4, offset: 0x19EC4, size: 0x8, addend: 0x0, symName: __ZNSt3__121__unwrap_and_dispatchB8ue170006INS_10__overloadINS_11__move_loopINS_17_ClassicAlgPolicyEEENS_14__move_trivialEEEPPcS8_S8_Li0EEENS_4pairIT0_T2_EESA_T1_SB_, symObjAddr: 0x3F09C, symBinAddr: 0x100040E64, symSize: 0x5A4 }
  - { offsetInCU: 0x19F5D, offset: 0x19F5D, size: 0x8, addend: 0x0, symName: __ZNSt3__114__unwrap_rangeB8ue170006IPPcS2_EENS_4pairIT0_S4_EET_S6_, symObjAddr: 0x3F640, symBinAddr: 0x100041408, symSize: 0x350 }
  - { offsetInCU: 0x1A09E, offset: 0x1A09E, size: 0x8, addend: 0x0, symName: __ZNSt3__113__unwrap_iterB8ue170006IPPcNS_18__unwrap_iter_implIS2_Lb1EEELi0EEEDTclsrT0_8__unwrapclsr3stdE7declvalIT_EEEES6_, symObjAddr: 0x3FBC0, symBinAddr: 0x100041988, symSize: 0x24 }
  - { offsetInCU: 0x1A0E2, offset: 0x1A0E2, size: 0x8, addend: 0x0, symName: __ZNSt3__19make_pairB8ue170006IPPcS2_EENS_4pairINS_18__unwrap_ref_decayIT_E4typeENS4_IT0_E4typeEEEOS5_OS8_, symObjAddr: 0x3FBE4, symBinAddr: 0x1000419AC, symSize: 0x20C }
  - { offsetInCU: 0x1A133, offset: 0x1A133, size: 0x8, addend: 0x0, symName: __ZNSt3__114__rewrap_rangeB8ue170006IPPcS2_EET_S3_T0_, symObjAddr: 0x3FDF0, symBinAddr: 0x100041BB8, symSize: 0x2C }
  - { offsetInCU: 0x1A17F, offset: 0x1A17F, size: 0x8, addend: 0x0, symName: __ZNSt3__113__rewrap_iterB8ue170006IPPcS2_NS_18__unwrap_iter_implIS2_Lb1EEEEET_S5_T0_, symObjAddr: 0x3FE1C, symBinAddr: 0x100041BE4, symSize: 0x5C }
  - { offsetInCU: 0x1A1D4, offset: 0x1A1D4, size: 0x8, addend: 0x0, symName: __ZNSt3__119__copy_trivial_implB8ue170006IPcS1_EENS_4pairIPT_PT0_EES4_S4_S6_, symObjAddr: 0x3FE78, symBinAddr: 0x100041C40, symSize: 0x3B4 }
  - { offsetInCU: 0x1A243, offset: 0x1A243, size: 0x8, addend: 0x0, symName: __ZNSt3__119__constexpr_memmoveB8ue170006IPcS1_Li0EEEPT_S3_PT0_NS_15__element_countE, symObjAddr: 0x4022C, symBinAddr: 0x100041FF4, symSize: 0xB0 }
  - { offsetInCU: 0x1A2B1, offset: 0x1A2B1, size: 0x8, addend: 0x0, symName: __ZNSt3__19make_pairB8ue170006IRPPcS2_EENS_4pairINS_18__unwrap_ref_decayIT_E4typeENS5_IT0_E4typeEEEOS6_OS9_, symObjAddr: 0x402DC, symBinAddr: 0x1000420A4, symSize: 0x20C }
  - { offsetInCU: 0x1A355, offset: 0x1A355, size: 0x8, addend: 0x0, symName: __ZNSt3__18distanceB8ue170006INS_13move_iteratorIPPcEEEENS_15iterator_traitsIT_E15difference_typeES6_S6_, symObjAddr: 0x40B68, symBinAddr: 0x100042930, symSize: 0x350 }
  - { offsetInCU: 0x1A3A0, offset: 0x1A3A0, size: 0x8, addend: 0x0, symName: __ZNSt3__110__distanceB8ue170006INS_13move_iteratorIPPcEEEENS_15iterator_traitsIT_E15difference_typeES6_S6_NS_26random_access_iterator_tagE, symObjAddr: 0x413E4, symBinAddr: 0x1000431AC, symSize: 0x274 }
  - { offsetInCU: 0x1A3F6, offset: 0x1A3F6, size: 0x8, addend: 0x0, symName: __ZNSt3__1miB8ue170006IPPcS2_EENS_13move_iteratorIT_E15difference_typeERKS5_RKNS3_IT0_EE, symObjAddr: 0x41658, symBinAddr: 0x100043420, symSize: 0x48 }
  - { offsetInCU: 0x1A445, offset: 0x1A445, size: 0x8, addend: 0x0, symName: __ZNSt3__113move_backwardB8ue170006IPPcS2_EET0_T_S4_S3_, symObjAddr: 0x41824, symBinAddr: 0x1000435EC, symSize: 0x254 }
  - { offsetInCU: 0x1A4A2, offset: 0x1A4A2, size: 0x8, addend: 0x0, symName: __ZNSt3__115__move_backwardB8ue170006INS_17_ClassicAlgPolicyEPPcS3_S3_EENS_4pairIT0_T2_EES5_T1_S6_, symObjAddr: 0x41A78, symBinAddr: 0x100043840, symSize: 0x22C }
  - { offsetInCU: 0x1A511, offset: 0x1A511, size: 0x8, addend: 0x0, symName: __ZNSt3__123__dispatch_copy_or_moveB8ue170006INS_17_ClassicAlgPolicyENS_20__move_backward_loopIS1_EENS_23__move_backward_trivialEPPcS6_S6_EENS_4pairIT2_T4_EES8_T3_S9_, symObjAddr: 0x41CA4, symBinAddr: 0x100043A6C, symSize: 0x22C }
  - { offsetInCU: 0x1A592, offset: 0x1A592, size: 0x8, addend: 0x0, symName: __ZNSt3__121__unwrap_and_dispatchB8ue170006INS_10__overloadINS_20__move_backward_loopINS_17_ClassicAlgPolicyEEENS_23__move_backward_trivialEEEPPcS8_S8_Li0EEENS_4pairIT0_T2_EESA_T1_SB_, symObjAddr: 0x41ED0, symBinAddr: 0x100043C98, symSize: 0x5A4 }
  - { offsetInCU: 0x1A671, offset: 0x1A671, size: 0x8, addend: 0x0, symName: __ZNSt3__128__copy_backward_trivial_implB8ue170006IPcS1_EENS_4pairIPT_PT0_EES4_S4_S6_, symObjAddr: 0x426A4, symBinAddr: 0x10004446C, symSize: 0x3DC }
  - { offsetInCU: 0x1A6E3, offset: 0x1A6E3, size: 0x8, addend: 0x0, symName: __ZNSt3__19make_pairB8ue170006IRPPcS3_EENS_4pairINS_18__unwrap_ref_decayIT_E4typeENS5_IT0_E4typeEEEOS6_OS9_, symObjAddr: 0x42A80, symBinAddr: 0x100044848, symSize: 0x20C }
  - { offsetInCU: 0x1A734, offset: 0x1A734, size: 0x8, addend: 0x0, symName: __ZNSt3__119__allocate_at_leastB8ue170006INS_9allocatorIPcEEEENS_19__allocation_resultINS_16allocator_traitsIT_E7pointerEEERS6_m, symObjAddr: 0x431E8, symBinAddr: 0x100044FB0, symSize: 0x28C }
  - { offsetInCU: 0x1A779, offset: 0x1A779, size: 0x8, addend: 0x0, symName: __ZNSt3__1neB8ue170006ERKNS_15__tree_iteratorINS_12__value_typeIciEEPNS_11__tree_nodeIS2_PvEElEES9_, symObjAddr: 0x45010, symBinAddr: 0x100046DD8, symSize: 0x34 }
  - { offsetInCU: 0x1A7B6, offset: 0x1A7B6, size: 0x8, addend: 0x0, symName: __ZNSt3__1eqB8ue170006ERKNS_15__tree_iteratorINS_12__value_typeIciEEPNS_11__tree_nodeIS2_PvEElEES9_, symObjAddr: 0x45314, symBinAddr: 0x1000470DC, symSize: 0xB8 }
  - { offsetInCU: 0x1A7F3, offset: 0x1A7F3, size: 0x8, addend: 0x0, symName: __ZNSt3__112__to_addressB8ue170006IP5StateEEPT_S4_, symObjAddr: 0x462AC, symBinAddr: 0x100048074, symSize: 0x14 }
  - { offsetInCU: 0x1A828, offset: 0x1A828, size: 0x8, addend: 0x0, symName: __ZNSt3__119__allocate_at_leastB8ue170006INS_9allocatorIP5StateEEEENS_19__allocation_resultINS_16allocator_traitsIT_E7pointerEEERS7_m, symObjAddr: 0x48660, symBinAddr: 0x10004A428, symSize: 0x28C }
  - { offsetInCU: 0x1A86D, offset: 0x1A86D, size: 0x8, addend: 0x0, symName: __ZNSt3__142__uninitialized_allocator_move_if_noexceptB8ue170006INS_9allocatorIP5StateEENS_16reverse_iteratorIPS3_EES7_S3_vEET1_RT_T0_SB_S8_, symObjAddr: 0x48B28, symBinAddr: 0x10004A8F0, symSize: 0x550 }
  - { offsetInCU: 0x1A8F7, offset: 0x1A8F7, size: 0x8, addend: 0x0, symName: __ZNSt3__14swapB8ue170006IPP5StateEEvRT_S5_, symObjAddr: 0x49110, symBinAddr: 0x10004AED8, symSize: 0x134 }
  - { offsetInCU: 0x1A948, offset: 0x1A948, size: 0x8, addend: 0x0, symName: __ZNSt3__1neB8ue170006IPP5StateS3_EEbRKNS_16reverse_iteratorIT_EERKNS4_IT0_EE, symObjAddr: 0x49318, symBinAddr: 0x10004B0E0, symSize: 0x48 }
  - { offsetInCU: 0x1A9B9, offset: 0x1A9B9, size: 0x8, addend: 0x0, symName: __ZNSt3__114__construct_atB8ue170006IP5StateJS2_EPS2_EEPT_S5_DpOT0_, symObjAddr: 0x49360, symBinAddr: 0x10004B128, symSize: 0xB8 }
  - { offsetInCU: 0x1AA29, offset: 0x1AA29, size: 0x8, addend: 0x0, symName: __ZNSt3__112__to_addressB8ue170006INS_16reverse_iteratorIPP5StateEEvEEu7__decayIDTclsr19__to_address_helperIT_EE6__callclsr3stdE7declvalIRKS6_EEEEES8_, symObjAddr: 0x49418, symBinAddr: 0x10004B1E0, symSize: 0x24 }
  - { offsetInCU: 0x1AA5F, offset: 0x1AA5F, size: 0x8, addend: 0x0, symName: __ZNSt3__14moveB8ue170006INS_16reverse_iteratorIPP5StateEES5_EET0_T_S7_S6_, symObjAddr: 0x4951C, symBinAddr: 0x10004B2E4, symSize: 0x4B0 }
  - { offsetInCU: 0x1AAEF, offset: 0x1AAEF, size: 0x8, addend: 0x0, symName: __ZNSt3__16__moveB8ue170006INS_17_ClassicAlgPolicyENS_16reverse_iteratorIPP5StateEES6_S6_EENS_4pairIT0_T2_EES8_T1_S9_, symObjAddr: 0x49A48, symBinAddr: 0x10004B810, symSize: 0x424 }
  - { offsetInCU: 0x1AB67, offset: 0x1AB67, size: 0x8, addend: 0x0, symName: __ZNSt3__123__dispatch_copy_or_moveB8ue170006INS_17_ClassicAlgPolicyENS_11__move_loopIS1_EENS_14__move_trivialENS_16reverse_iteratorIPP5StateEES9_S9_EENS_4pairIT2_T4_EESB_T3_SC_, symObjAddr: 0x49E6C, symBinAddr: 0x10004BC34, symSize: 0x424 }
  - { offsetInCU: 0x1ABF1, offset: 0x1ABF1, size: 0x8, addend: 0x0, symName: __ZNSt3__121__unwrap_and_dispatchB8ue170006INS_10__overloadINS_11__move_loopINS_17_ClassicAlgPolicyEEENS_14__move_trivialEEENS_16reverse_iteratorIPP5StateEESB_SB_Li0EEENS_4pairIT0_T2_EESD_T1_SE_, symObjAddr: 0x4A290, symBinAddr: 0x10004C058, symSize: 0x880 }
  - { offsetInCU: 0x1AC95, offset: 0x1AC95, size: 0x8, addend: 0x0, symName: __ZNSt3__114__unwrap_rangeB8ue170006INS_16reverse_iteratorIPP5StateEES5_EENS_4pairIT0_S7_EET_S9_, symObjAddr: 0x4AB10, symBinAddr: 0x10004C8D8, symSize: 0x448 }
  - { offsetInCU: 0x1AD96, offset: 0x1AD96, size: 0x8, addend: 0x0, symName: __ZNSt3__113__unwrap_iterB8ue170006INS_16reverse_iteratorIPP5StateEENS_18__unwrap_iter_implIS5_Lb0EEELi0EEEDTclsrT0_8__unwrapclsr3stdE7declvalIT_EEEES9_, symObjAddr: 0x4B300, symBinAddr: 0x10004D0C8, symSize: 0x2EC }
  - { offsetInCU: 0x1ADDE, offset: 0x1ADDE, size: 0x8, addend: 0x0, symName: __ZNSt3__19make_pairB8ue170006INS_16reverse_iteratorIPP5StateEES5_EENS_4pairINS_18__unwrap_ref_decayIT_E4typeENS7_IT0_E4typeEEEOS8_OSB_, symObjAddr: 0x4B5EC, symBinAddr: 0x10004D3B4, symSize: 0x38 }
  - { offsetInCU: 0x1AE2D, offset: 0x1AE2D, size: 0x8, addend: 0x0, symName: __ZNSt3__114__rewrap_rangeB8ue170006INS_16reverse_iteratorIPP5StateEES5_EET_S6_T0_, symObjAddr: 0x4B624, symBinAddr: 0x10004D3EC, symSize: 0x3D4 }
  - { offsetInCU: 0x1AE81, offset: 0x1AE81, size: 0x8, addend: 0x0, symName: __ZNSt3__113__rewrap_iterB8ue170006INS_16reverse_iteratorIPP5StateEES5_NS_18__unwrap_iter_implIS5_Lb0EEEEET_S8_T0_, symObjAddr: 0x4B9F8, symBinAddr: 0x10004D7C0, symSize: 0x3FC }
  - { offsetInCU: 0x1AF4A, offset: 0x1AF4A, size: 0x8, addend: 0x0, symName: __ZNSt3__18distanceB8ue170006IPP5StateEENS_15iterator_traitsIT_E15difference_typeES5_S5_, symObjAddr: 0x4D640, symBinAddr: 0x10004F408, symSize: 0x2C }
  - { offsetInCU: 0x1AF8D, offset: 0x1AF8D, size: 0x8, addend: 0x0, symName: __ZNSt3__14nextB8ue170006IPP5StateEENS_9enable_ifIXsr29__has_input_iterator_categoryIT_EE5valueES5_E4typeES5_NS_15iterator_traitsIS5_E15difference_typeE, symObjAddr: 0x4D66C, symBinAddr: 0x10004F434, symSize: 0x238 }
  - { offsetInCU: 0x1AFD5, offset: 0x1AFD5, size: 0x8, addend: 0x0, symName: __ZNSt3__14copyB8ue170006IPP5StateS3_EET0_T_S5_S4_, symObjAddr: 0x4D8A4, symBinAddr: 0x10004F66C, symSize: 0x254 }
  - { offsetInCU: 0x1B032, offset: 0x1B032, size: 0x8, addend: 0x0, symName: __ZNSt3__16__copyB8ue170006INS_17_ClassicAlgPolicyEPP5StateS4_S4_EENS_4pairIT0_T2_EES6_T1_S7_, symObjAddr: 0x4DE8C, symBinAddr: 0x10004FC54, symSize: 0x22C }
  - { offsetInCU: 0x1B0A1, offset: 0x1B0A1, size: 0x8, addend: 0x0, symName: __ZNSt3__19__advanceB8ue170006IPP5StateEEvRT_NS_15iterator_traitsIS4_E15difference_typeENS_26random_access_iterator_tagE, symObjAddr: 0x4E6F0, symBinAddr: 0x1000504B8, symSize: 0x78 }
  - { offsetInCU: 0x1B0EA, offset: 0x1B0EA, size: 0x8, addend: 0x0, symName: __ZNSt3__130__uninitialized_allocator_copyB8ue170006INS_9allocatorIP5StateEEPS3_S5_S5_EET2_RT_T0_T1_S6_, symObjAddr: 0x4E768, symBinAddr: 0x100050530, symSize: 0x2DC }
  - { offsetInCU: 0x1B190, offset: 0x1B190, size: 0x8, addend: 0x0, symName: __ZNSt3__114__unwrap_rangeB8ue170006IPP5StateS3_EENS_4pairIT0_S5_EET_S7_, symObjAddr: 0x4EA44, symBinAddr: 0x10005080C, symSize: 0x350 }
  - { offsetInCU: 0x1B1DE, offset: 0x1B1DE, size: 0x8, addend: 0x0, symName: __ZNSt3__135__uninitialized_allocator_copy_implB8ue170006INS_9allocatorIP5StateEEPS3_S5_S5_EET2_RT_T0_T1_S6_, symObjAddr: 0x4ED94, symBinAddr: 0x100050B5C, symSize: 0x534 }
  - { offsetInCU: 0x1B28A, offset: 0x1B28A, size: 0x8, addend: 0x0, symName: __ZNSt3__113__unwrap_iterB8ue170006IPP5StateNS_18__unwrap_iter_implIS3_Lb1EEELi0EEEDTclsrT0_8__unwrapclsr3stdE7declvalIT_EEEES7_, symObjAddr: 0x4F2C8, symBinAddr: 0x100051090, symSize: 0x24 }
  - { offsetInCU: 0x1B2CE, offset: 0x1B2CE, size: 0x8, addend: 0x0, symName: __ZNSt3__113__rewrap_iterB8ue170006IPP5StateS3_NS_18__unwrap_iter_implIS3_Lb1EEEEET_S6_T0_, symObjAddr: 0x4F2EC, symBinAddr: 0x1000510B4, symSize: 0x5C }
  - { offsetInCU: 0x1B323, offset: 0x1B323, size: 0x8, addend: 0x0, symName: __ZNSt3__19make_pairB8ue170006IPP5StateS3_EENS_4pairINS_18__unwrap_ref_decayIT_E4typeENS5_IT0_E4typeEEEOS6_OS9_, symObjAddr: 0x4F348, symBinAddr: 0x100051110, symSize: 0x20C }
  - { offsetInCU: 0x1B421, offset: 0x1B421, size: 0x8, addend: 0x0, symName: __ZNSt3__122__make_exception_guardB8ue170006INS_29_AllocatorDestroyRangeReverseINS_9allocatorIP5StateEEPS4_EEEENS_28__exception_guard_exceptionsIT_EES9_, symObjAddr: 0x4F6C8, symBinAddr: 0x100051490, symSize: 0x1F8 }
  - { offsetInCU: 0x1B458, offset: 0x1B458, size: 0x8, addend: 0x0, symName: __ZNSt3__119__allocator_destroyB8ue170006INS_9allocatorIP5StateEENS_16reverse_iteratorIPS3_EES7_EEvRT_T0_T1_, symObjAddr: 0x500C4, symBinAddr: 0x100051E8C, symSize: 0x2B8 }
  - { offsetInCU: 0x1B517, offset: 0x1B517, size: 0x8, addend: 0x0, symName: __ZNSt3__123__dispatch_copy_or_moveB8ue170006INS_17_ClassicAlgPolicyENS_11__copy_loopIS1_EENS_14__copy_trivialEPP5StateS7_S7_EENS_4pairIT2_T4_EES9_T3_SA_, symObjAddr: 0x503F0, symBinAddr: 0x1000521B8, symSize: 0x22C }
  - { offsetInCU: 0x1B598, offset: 0x1B598, size: 0x8, addend: 0x0, symName: __ZNSt3__121__unwrap_and_dispatchB8ue170006INS_10__overloadINS_11__copy_loopINS_17_ClassicAlgPolicyEEENS_14__copy_trivialEEEPP5StateS9_S9_Li0EEENS_4pairIT0_T2_EESB_T1_SC_, symObjAddr: 0x5061C, symBinAddr: 0x1000523E4, symSize: 0x5A4 }
  - { offsetInCU: 0x1B677, offset: 0x1B677, size: 0x8, addend: 0x0, symName: __ZNSt3__114__rewrap_rangeB8ue170006IPP5StateS3_EET_S4_T0_, symObjAddr: 0x50DF0, symBinAddr: 0x100052BB8, symSize: 0x2C }
  - { offsetInCU: 0x1B6C3, offset: 0x1B6C3, size: 0x8, addend: 0x0, symName: __ZNSt3__119__copy_trivial_implB8ue170006IP5StateS2_EENS_4pairIPT_PT0_EES5_S5_S7_, symObjAddr: 0x50E1C, symBinAddr: 0x100052BE4, symSize: 0x3B4 }
  - { offsetInCU: 0x1B732, offset: 0x1B732, size: 0x8, addend: 0x0, symName: __ZNSt3__119__constexpr_memmoveB8ue170006IP5StateS2_Li0EEEPT_S4_PT0_NS_15__element_countE, symObjAddr: 0x511D0, symBinAddr: 0x100052F98, symSize: 0xB0 }
  - { offsetInCU: 0x1B7A0, offset: 0x1B7A0, size: 0x8, addend: 0x0, symName: __ZNSt3__19make_pairB8ue170006IRPP5StateS3_EENS_4pairINS_18__unwrap_ref_decayIT_E4typeENS6_IT0_E4typeEEEOS7_OSA_, symObjAddr: 0x51280, symBinAddr: 0x100053048, symSize: 0x20C }
  - { offsetInCU: 0x1B7F1, offset: 0x1B7F1, size: 0x8, addend: 0x0, symName: __ZNSt3__110__distanceB8ue170006IPP5StateEENS_15iterator_traitsIT_E15difference_typeES5_S5_NS_26random_access_iterator_tagE, symObjAddr: 0x5148C, symBinAddr: 0x100053254, symSize: 0x28 }
  - { offsetInCU: 0x1B83E, offset: 0x1B83E, size: 0x8, addend: 0x0, symName: __ZNSt3__1eqB8ue170006IPP5StateEEbRKNS_11__wrap_iterIT_EES8_, symObjAddr: 0x51754, symBinAddr: 0x10005351C, symSize: 0x48 }
  - { offsetInCU: 0x1BBB5, offset: 0x1BBB5, size: 0x8, addend: 0x0, symName: __ZSt28__throw_bad_array_new_lengthB8ue170006v, symObjAddr: 0x10454, symBinAddr: 0x10001221C, symSize: 0x38 }
  - { offsetInCU: 0x1BFC0, offset: 0x1BFC0, size: 0x8, addend: 0x0, symName: _.str, symObjAddr: 0x52E00, symBinAddr: 0x1000553E0, symSize: 0x0 }
  - { offsetInCU: 0x1BFE1, offset: 0x1BFE1, size: 0x8, addend: 0x0, symName: _.str.1, symObjAddr: 0x52E20, symBinAddr: 0x100055400, symSize: 0x0 }
  - { offsetInCU: 0x1C002, offset: 0x1C002, size: 0x8, addend: 0x0, symName: _.str.2, symObjAddr: 0x52E40, symBinAddr: 0x100055420, symSize: 0x0 }
  - { offsetInCU: 0x1C022, offset: 0x1C022, size: 0x8, addend: 0x0, symName: _.str.3, symObjAddr: 0x52E60, symBinAddr: 0x100055440, symSize: 0x0 }
  - { offsetInCU: 0x1C034, offset: 0x1C034, size: 0x8, addend: 0x0, symName: _.str.4, symObjAddr: 0x52E80, symBinAddr: 0x100055460, symSize: 0x0 }
  - { offsetInCU: 0x1C046, offset: 0x1C046, size: 0x8, addend: 0x0, symName: _.str.5, symObjAddr: 0x52EA0, symBinAddr: 0x100055480, symSize: 0x0 }
  - { offsetInCU: 0x1C066, offset: 0x1C066, size: 0x8, addend: 0x0, symName: _.str.6, symObjAddr: 0x52EC0, symBinAddr: 0x1000554A0, symSize: 0x0 }
  - { offsetInCU: 0x1C086, offset: 0x1C086, size: 0x8, addend: 0x0, symName: _.str.7, symObjAddr: 0x52EE0, symBinAddr: 0x1000554C0, symSize: 0x0 }
  - { offsetInCU: 0x1C0A6, offset: 0x1C0A6, size: 0x8, addend: 0x0, symName: _.str.8, symObjAddr: 0x52F00, symBinAddr: 0x1000554E0, symSize: 0x0 }
  - { offsetInCU: 0x1C0B8, offset: 0x1C0B8, size: 0x8, addend: 0x0, symName: _.str.9, symObjAddr: 0x52F20, symBinAddr: 0x100055500, symSize: 0x0 }
  - { offsetInCU: 0x1C0D8, offset: 0x1C0D8, size: 0x8, addend: 0x0, symName: _.str.10, symObjAddr: 0x52F40, symBinAddr: 0x100055520, symSize: 0x0 }
  - { offsetInCU: 0x1C0EA, offset: 0x1C0EA, size: 0x8, addend: 0x0, symName: _.str.11, symObjAddr: 0x52F60, symBinAddr: 0x100055540, symSize: 0x0 }
  - { offsetInCU: 0x1C10A, offset: 0x1C10A, size: 0x8, addend: 0x0, symName: _.str.12, symObjAddr: 0x52F80, symBinAddr: 0x100055560, symSize: 0x0 }
  - { offsetInCU: 0x1C12B, offset: 0x1C12B, size: 0x8, addend: 0x0, symName: _.str.13, symObjAddr: 0x52FA0, symBinAddr: 0x100055580, symSize: 0x0 }
  - { offsetInCU: 0x1C13E, offset: 0x1C13E, size: 0x8, addend: 0x0, symName: _.str.14, symObjAddr: 0x52FC0, symBinAddr: 0x1000555A0, symSize: 0x0 }
  - { offsetInCU: 0x1C151, offset: 0x1C151, size: 0x8, addend: 0x0, symName: _.str.15, symObjAddr: 0x52FE0, symBinAddr: 0x1000555C0, symSize: 0x0 }
  - { offsetInCU: 0x1C167, offset: 0x1C167, size: 0x8, addend: 0x0, symName: __ZL16current_state_id, symObjAddr: 0x112A80, symBinAddr: 0x10006CA80, symSize: 0x0 }
  - { offsetInCU: 0x1C17D, offset: 0x1C17D, size: 0x8, addend: 0x0, symName: _.str.16, symObjAddr: 0x53000, symBinAddr: 0x1000555E0, symSize: 0x0 }
  - { offsetInCU: 0x1C9C5, offset: 0x1C9C5, size: 0x8, addend: 0x0, symName: __ZN5State6acceptEv, symObjAddr: 0x9200, symBinAddr: 0x10000AFC8, symSize: 0x80C }
  - { offsetInCU: 0x1C9E8, offset: 0x1C9E8, size: 0x8, addend: 0x0, symName: __ZZN5State6acceptEvE7visited, symObjAddr: 0x53210, symBinAddr: 0x10006C000, symSize: 0x0 }
  - { offsetInCU: 0x1CD21, offset: 0x1CD21, size: 0x8, addend: 0x0, symName: __ZlsRNSt3__113basic_ostreamIcNS_11char_traitsIcEEEERK5State, symObjAddr: 0x189C8, symBinAddr: 0x10001A790, symSize: 0xB14 }
  - { offsetInCU: 0x1CD4A, offset: 0x1CD4A, size: 0x8, addend: 0x0, symName: __ZZlsRNSt3__113basic_ostreamIcNS_11char_traitsIcEEEERK5StateE6indent, symObjAddr: 0x53230, symBinAddr: 0x10006C020, symSize: 0x0 }
  - { offsetInCU: 0x1CD5F, offset: 0x1CD5F, size: 0x8, addend: 0x0, symName: __ZZlsRNSt3__113basic_ostreamIcNS_11char_traitsIcEEEERK5StateE7visited, symObjAddr: 0x53238, symBinAddr: 0x10006C028, symSize: 0x0 }
  - { offsetInCU: 0x1CDAD, offset: 0x1CDAD, size: 0x8, addend: 0x0, symName: _.str.17, symObjAddr: 0x53020, symBinAddr: 0x100055600, symSize: 0x0 }
  - { offsetInCU: 0x1D0A4, offset: 0x1D0A4, size: 0x8, addend: 0x0, symName: _.str.18, symObjAddr: 0x53040, symBinAddr: 0x100055620, symSize: 0x0 }
  - { offsetInCU: 0x1D0B6, offset: 0x1D0B6, size: 0x8, addend: 0x0, symName: _.str.19, symObjAddr: 0x53060, symBinAddr: 0x100055640, symSize: 0x0 }
  - { offsetInCU: 0x1D0D6, offset: 0x1D0D6, size: 0x8, addend: 0x0, symName: _.str.20, symObjAddr: 0x53080, symBinAddr: 0x100055660, symSize: 0x0 }
  - { offsetInCU: 0x1D0E8, offset: 0x1D0E8, size: 0x8, addend: 0x0, symName: _.str.21, symObjAddr: 0x530A0, symBinAddr: 0x100055680, symSize: 0x0 }
  - { offsetInCU: 0x1D0FB, offset: 0x1D0FB, size: 0x8, addend: 0x0, symName: _.str.22, symObjAddr: 0x530C0, symBinAddr: 0x1000556A0, symSize: 0x0 }
  - { offsetInCU: 0x1D10E, offset: 0x1D10E, size: 0x8, addend: 0x0, symName: _.str.23, symObjAddr: 0x530E0, symBinAddr: 0x1000556C0, symSize: 0x0 }
  - { offsetInCU: 0x1D126, offset: 0x1D126, size: 0x8, addend: 0x0, symName: __ZN5StateD2Ev, symObjAddr: 0x2069C, symBinAddr: 0x100022464, symSize: 0xFE4 }
  - { offsetInCU: 0x1D14D, offset: 0x1D14D, size: 0x8, addend: 0x0, symName: __ZZN5StateD1EvE7visited, symObjAddr: 0x53258, symBinAddr: 0x10006C048, symSize: 0x0 }
  - { offsetInCU: 0x1D5B2, offset: 0x1D5B2, size: 0x8, addend: 0x0, symName: _.str.24, symObjAddr: 0x53100, symBinAddr: 0x1000556E0, symSize: 0x0 }
  - { offsetInCU: 0x1DA3C, offset: 0x1DA3C, size: 0x8, addend: 0x0, symName: __ZNSt3__16vectorI8FragmentNS_9allocatorIS1_EEE26__swap_out_circular_bufferERNS_14__split_bufferIS1_RS3_EE, symObjAddr: 0x2D368, symBinAddr: 0x10002F130, symSize: 0x56C }
  - { offsetInCU: 0x1E0C8, offset: 0x1E0C8, size: 0x8, addend: 0x0, symName: __ZNSt3__16vectorIP5StateNS_9allocatorIS2_EEE26__swap_out_circular_bufferERNS_14__split_bufferIS2_RS4_EE, symObjAddr: 0x4778C, symBinAddr: 0x100049554, symSize: 0x56C }
  - { offsetInCU: 0x2045D, offset: 0x2045D, size: 0x8, addend: 0x0, symName: __ZN11DebugStreamC1Ev, symObjAddr: 0x0, symBinAddr: 0x100001DC8, symSize: 0x31C }
  - { offsetInCU: 0x20487, offset: 0x20487, size: 0x8, addend: 0x0, symName: __ZN11DebugStreamD1Ev, symObjAddr: 0x31C, symBinAddr: 0x1000020E4, symSize: 0x7C }
  - { offsetInCU: 0x204B2, offset: 0x204B2, size: 0x8, addend: 0x0, symName: __Z8post2nfaNSt3__112basic_stringIcNS_11char_traitsIcEENS_9allocatorIcEEEE, symObjAddr: 0x398, symBinAddr: 0x100002160, symSize: 0x242C }
  - { offsetInCU: 0x20595, offset: 0x20595, size: 0x8, addend: 0x0, symName: __ZNSt3__16vectorI8FragmentNS_9allocatorIS1_EEEC1B8ue170006Ev, symObjAddr: 0x27C4, symBinAddr: 0x10000458C, symSize: 0x2C }
  - { offsetInCU: 0x205BF, offset: 0x205BF, size: 0x8, addend: 0x0, symName: __ZN8FragmentC1Ev, symObjAddr: 0x27F0, symBinAddr: 0x1000045B8, symSize: 0x2C }
  - { offsetInCU: 0x205E9, offset: 0x205E9, size: 0x8, addend: 0x0, symName: __ZNKSt3__112basic_stringIcNS_11char_traitsIcEENS_9allocatorIcEEE4sizeB8ue170006Ev, symObjAddr: 0x281C, symBinAddr: 0x1000045E4, symSize: 0x54 }
  - { offsetInCU: 0x2060F, offset: 0x2060F, size: 0x8, addend: 0x0, symName: __ZNSt3__112basic_stringIcNS_11char_traitsIcEENS_9allocatorIcEEEixB8ue170006Em, symObjAddr: 0x2870, symBinAddr: 0x100004638, symSize: 0x30 }
  - { offsetInCU: 0x20644, offset: 0x20644, size: 0x8, addend: 0x0, symName: __ZNSt3__113basic_ostreamIcNS_11char_traitsIcEEElsB8ue170006EPFRS3_S4_E, symObjAddr: 0x2AC0, symBinAddr: 0x100004888, symSize: 0x2C }
  - { offsetInCU: 0x20678, offset: 0x20678, size: 0x8, addend: 0x0, symName: __ZNKSt3__16vectorI8FragmentNS_9allocatorIS1_EEE4sizeB8ue170006Ev, symObjAddr: 0x2BC0, symBinAddr: 0x100004988, symSize: 0xB0 }
  - { offsetInCU: 0x2069E, offset: 0x2069E, size: 0x8, addend: 0x0, symName: __ZNSt3__16vectorI8FragmentNS_9allocatorIS1_EEE4backB8ue170006Ev, symObjAddr: 0x2C70, symBinAddr: 0x100004A38, symSize: 0x68 }
  - { offsetInCU: 0x206C4, offset: 0x206C4, size: 0x8, addend: 0x0, symName: __ZNSt3__16vectorI8FragmentNS_9allocatorIS1_EEE8pop_backEv, symObjAddr: 0x2CD8, symBinAddr: 0x100004AA0, symSize: 0x6C }
  - { offsetInCU: 0x206EC, offset: 0x206EC, size: 0x8, addend: 0x0, symName: __ZN9StateList5patchEP5State, symObjAddr: 0x2D44, symBinAddr: 0x100004B0C, symSize: 0x3E8 }
  - { offsetInCU: 0x20744, offset: 0x20744, size: 0x8, addend: 0x0, symName: __ZNSt3__16vectorI8FragmentNS_9allocatorIS1_EEE9push_backB8ue170006ERKS1_, symObjAddr: 0x312C, symBinAddr: 0x100004EF4, symSize: 0xE0 }
  - { offsetInCU: 0x2077B, offset: 0x2077B, size: 0x8, addend: 0x0, symName: __ZN5StateC1Ev, symObjAddr: 0x320C, symBinAddr: 0x100004FD4, symSize: 0x2C }
  - { offsetInCU: 0x207A5, offset: 0x207A5, size: 0x8, addend: 0x0, symName: __ZN5State5patchEPS_, symObjAddr: 0x3238, symBinAddr: 0x100005000, symSize: 0x3F0 }
  - { offsetInCU: 0x207D9, offset: 0x207D9, size: 0x8, addend: 0x0, symName: __ZN9StateList8addstateEPS_, symObjAddr: 0x3628, symBinAddr: 0x1000053F0, symSize: 0x30C }
  - { offsetInCU: 0x20810, offset: 0x20810, size: 0x8, addend: 0x0, symName: __ZN9StateListC1EP5State, symObjAddr: 0x3934, symBinAddr: 0x1000056FC, symSize: 0x34 }
  - { offsetInCU: 0x20849, offset: 0x20849, size: 0x8, addend: 0x0, symName: __ZN5StateC1EcPS_, symObjAddr: 0x3968, symBinAddr: 0x100005730, symSize: 0x3C }
  - { offsetInCU: 0x2088F, offset: 0x2088F, size: 0x8, addend: 0x0, symName: __ZN5StateC1Eb, symObjAddr: 0x39A4, symBinAddr: 0x10000576C, symSize: 0x40 }
  - { offsetInCU: 0x20927, offset: 0x20927, size: 0x8, addend: 0x0, symName: __ZNSt3__13setImNS_4lessImEENS_9allocatorImEEEC1B8ue170006Ev, symObjAddr: 0x39E4, symBinAddr: 0x1000057AC, symSize: 0x2C }
  - { offsetInCU: 0x20951, offset: 0x20951, size: 0x8, addend: 0x0, symName: __ZNSt3__13setImNS_4lessImEENS_9allocatorImEEE4findB8ue170006ERKm, symObjAddr: 0x3AC8, symBinAddr: 0x100005890, symSize: 0x2BC }
  - { offsetInCU: 0x20988, offset: 0x20988, size: 0x8, addend: 0x0, symName: __ZNSt3__16vectorI8FragmentNS_9allocatorIS1_EEEixB8ue170006Em, symObjAddr: 0x3D84, symBinAddr: 0x100005B4C, symSize: 0x6C }
  - { offsetInCU: 0x209BF, offset: 0x209BF, size: 0x8, addend: 0x0, symName: __ZNSt3__13setImNS_4lessImEENS_9allocatorImEEE3endB8ue170006Ev, symObjAddr: 0x3DF0, symBinAddr: 0x100005BB8, symSize: 0x2B4 }
  - { offsetInCU: 0x209E6, offset: 0x209E6, size: 0x8, addend: 0x0, symName: __ZNSt3__13setImNS_4lessImEENS_9allocatorImEEE6insertB8ue170006ERKm, symObjAddr: 0x40A4, symBinAddr: 0x100005E6C, symSize: 0x2A8 }
  - { offsetInCU: 0x20A1D, offset: 0x20A1D, size: 0x8, addend: 0x0, symName: __ZN9StateListD1Ev, symObjAddr: 0x434C, symBinAddr: 0x100006114, symSize: 0x2C }
  - { offsetInCU: 0x20A4A, offset: 0x20A4A, size: 0x8, addend: 0x0, symName: __ZNSt3__13setImNS_4lessImEENS_9allocatorImEEED1B8ue170006Ev, symObjAddr: 0x4378, symBinAddr: 0x100006140, symSize: 0x2C }
  - { offsetInCU: 0x20A74, offset: 0x20A74, size: 0x8, addend: 0x0, symName: __ZNSt3__16vectorI8FragmentNS_9allocatorIS1_EEED1B8ue170006Ev, symObjAddr: 0x43B0, symBinAddr: 0x100006178, symSize: 0x2C }
  - { offsetInCU: 0x20A9E, offset: 0x20A9E, size: 0x8, addend: 0x0, symName: __Z11is_operatorc, symObjAddr: 0x43DC, symBinAddr: 0x1000061A4, symSize: 0xD4 }
  - { offsetInCU: 0x20ACC, offset: 0x20ACC, size: 0x8, addend: 0x0, symName: __Z13infix2postfixNSt3__112basic_stringIcNS_11char_traitsIcEENS_9allocatorIcEEEE, symObjAddr: 0x44B0, symBinAddr: 0x100006278, symSize: 0x1AC0 }
  - { offsetInCU: 0x20B7E, offset: 0x20B7E, size: 0x8, addend: 0x0, symName: __ZNSt3__112basic_stringIcNS_11char_traitsIcEENS_9allocatorIcEEEC1B8ue170006Ev, symObjAddr: 0x5F70, symBinAddr: 0x100007D38, symSize: 0x2C }
  - { offsetInCU: 0x20BD5, offset: 0x20BD5, size: 0x8, addend: 0x0, symName: __ZNSt3__15stackIcNS_5dequeIcNS_9allocatorIcEEEEEC1B8ue170006Ev, symObjAddr: 0x5F9C, symBinAddr: 0x100007D64, symSize: 0x2C }
  - { offsetInCU: 0x20BFF, offset: 0x20BFF, size: 0x8, addend: 0x0, symName: __ZNSt3__13mapIciNS_4lessIcEENS_9allocatorINS_4pairIKciEEEEEC1B8ue170006Ev, symObjAddr: 0x5FC8, symBinAddr: 0x100007D90, symSize: 0x2C }
  - { offsetInCU: 0x20C29, offset: 0x20C29, size: 0x8, addend: 0x0, symName: __ZNSt3__13mapIciNS_4lessIcEENS_9allocatorINS_4pairIKciEEEEEixERS5_, symObjAddr: 0x5FF4, symBinAddr: 0x100007DBC, symSize: 0x374 }
  - { offsetInCU: 0x20CAE, offset: 0x20CAE, size: 0x8, addend: 0x0, symName: __ZNSt3__15stackIcNS_5dequeIcNS_9allocatorIcEEEEE4pushB8ue170006ERKc, symObjAddr: 0x63FC, symBinAddr: 0x1000081C4, symSize: 0x2C }
  - { offsetInCU: 0x20CE3, offset: 0x20CE3, size: 0x8, addend: 0x0, symName: __ZNKSt3__15stackIcNS_5dequeIcNS_9allocatorIcEEEEE5emptyB8ue170006Ev, symObjAddr: 0x6428, symBinAddr: 0x1000081F0, symSize: 0x28 }
  - { offsetInCU: 0x20D09, offset: 0x20D09, size: 0x8, addend: 0x0, symName: __ZNSt3__15stackIcNS_5dequeIcNS_9allocatorIcEEEEE3topB8ue170006Ev, symObjAddr: 0x6450, symBinAddr: 0x100008218, symSize: 0x24 }
  - { offsetInCU: 0x20D2F, offset: 0x20D2F, size: 0x8, addend: 0x0, symName: __ZNSt3__112basic_stringIcNS_11char_traitsIcEENS_9allocatorIcEEEpLB8ue170006Ec, symObjAddr: 0x6474, symBinAddr: 0x10000823C, symSize: 0x34 }
  - { offsetInCU: 0x20D64, offset: 0x20D64, size: 0x8, addend: 0x0, symName: __ZNSt3__15stackIcNS_5dequeIcNS_9allocatorIcEEEEE3popB8ue170006Ev, symObjAddr: 0x64A8, symBinAddr: 0x100008270, symSize: 0x24 }
  - { offsetInCU: 0x20D8A, offset: 0x20D8A, size: 0x8, addend: 0x0, symName: __ZNSt3__13mapIciNS_4lessIcEENS_9allocatorINS_4pairIKciEEEEE4findB8ue170006ERS5_, symObjAddr: 0x64FC, symBinAddr: 0x1000082C4, symSize: 0x2BC }
  - { offsetInCU: 0x20DC1, offset: 0x20DC1, size: 0x8, addend: 0x0, symName: __ZNSt3__13mapIciNS_4lessIcEENS_9allocatorINS_4pairIKciEEEEE3endB8ue170006Ev, symObjAddr: 0x67B8, symBinAddr: 0x100008580, symSize: 0x2B4 }
  - { offsetInCU: 0x20DE8, offset: 0x20DE8, size: 0x8, addend: 0x0, symName: __ZNSt3__13mapIciNS_4lessIcEENS_9allocatorINS_4pairIKciEEEEED1B8ue170006Ev, symObjAddr: 0x6A6C, symBinAddr: 0x100008834, symSize: 0x2C }
  - { offsetInCU: 0x20E12, offset: 0x20E12, size: 0x8, addend: 0x0, symName: __ZNSt3__15stackIcNS_5dequeIcNS_9allocatorIcEEEEED1Ev, symObjAddr: 0x6A98, symBinAddr: 0x100008860, symSize: 0x2C }
  - { offsetInCU: 0x20E3D, offset: 0x20E3D, size: 0x8, addend: 0x0, symName: __Z5matchP5StateNSt3__112basic_stringIcNS1_11char_traitsIcEENS1_9allocatorIcEEEE, symObjAddr: 0x6AC4, symBinAddr: 0x10000888C, symSize: 0x1224 }
  - { offsetInCU: 0x20F3E, offset: 0x20F3E, size: 0x8, addend: 0x0, symName: __ZNSt3__16vectorIP5StateNS_9allocatorIS2_EEEC1B8ue170006Ev, symObjAddr: 0x7CE8, symBinAddr: 0x100009AB0, symSize: 0x2C }
  - { offsetInCU: 0x20F68, offset: 0x20F68, size: 0x8, addend: 0x0, symName: __ZNSt3__16vectorIP5StateNS_9allocatorIS2_EEE9push_backB8ue170006ERKS2_, symObjAddr: 0x7D14, symBinAddr: 0x100009ADC, symSize: 0xE0 }
  - { offsetInCU: 0x20F9F, offset: 0x20F9F, size: 0x8, addend: 0x0, symName: __ZNSt3__13setIP5StateNS_4lessIS2_EENS_9allocatorIS2_EEEC1B8ue170006Ev, symObjAddr: 0x7DF4, symBinAddr: 0x100009BBC, symSize: 0x2C }
  - { offsetInCU: 0x20FC9, offset: 0x20FC9, size: 0x8, addend: 0x0, symName: __ZNKSt3__16vectorIP5StateNS_9allocatorIS2_EEE4sizeB8ue170006Ev, symObjAddr: 0x7E20, symBinAddr: 0x100009BE8, symSize: 0xB0 }
  - { offsetInCU: 0x20FEF, offset: 0x20FEF, size: 0x8, addend: 0x0, symName: __ZNSt3__16vectorIP5StateNS_9allocatorIS2_EEEixB8ue170006Em, symObjAddr: 0x7ED0, symBinAddr: 0x100009C98, symSize: 0x6C }
  - { offsetInCU: 0x21026, offset: 0x21026, size: 0x8, addend: 0x0, symName: __ZNSt3__13setIP5StateNS_4lessIS2_EENS_9allocatorIS2_EEE4findB8ue170006ERKS2_, symObjAddr: 0x7F70, symBinAddr: 0x100009D38, symSize: 0x2BC }
  - { offsetInCU: 0x2105D, offset: 0x2105D, size: 0x8, addend: 0x0, symName: __ZNSt3__13setIP5StateNS_4lessIS2_EENS_9allocatorIS2_EEE3endB8ue170006Ev, symObjAddr: 0x822C, symBinAddr: 0x100009FF4, symSize: 0x2B4 }
  - { offsetInCU: 0x21084, offset: 0x21084, size: 0x8, addend: 0x0, symName: __ZNK5State8is_matchEc, symObjAddr: 0x84E0, symBinAddr: 0x10000A2A8, symSize: 0xA0 }
  - { offsetInCU: 0x210B8, offset: 0x210B8, size: 0x8, addend: 0x0, symName: __ZN5State7getout1Ev, symObjAddr: 0x8580, symBinAddr: 0x10000A348, symSize: 0x64 }
  - { offsetInCU: 0x210DE, offset: 0x210DE, size: 0x8, addend: 0x0, symName: __ZNSt3__16vectorIP5StateNS_9allocatorIS2_EEE9push_backB8ue170006EOS2_, symObjAddr: 0x85E4, symBinAddr: 0x10000A3AC, symSize: 0xE0 }
  - { offsetInCU: 0x21115, offset: 0x21115, size: 0x8, addend: 0x0, symName: __ZN5State7getout2Ev, symObjAddr: 0x86C4, symBinAddr: 0x10000A48C, symSize: 0x64 }
  - { offsetInCU: 0x2113B, offset: 0x2113B, size: 0x8, addend: 0x0, symName: __ZNK5State10is_epsilonEv, symObjAddr: 0x8728, symBinAddr: 0x10000A4F0, symSize: 0x98 }
  - { offsetInCU: 0x21161, offset: 0x21161, size: 0x8, addend: 0x0, symName: __ZNSt3__13setIP5StateNS_4lessIS2_EENS_9allocatorIS2_EEE6insertB8ue170006ERKS2_, symObjAddr: 0x87C0, symBinAddr: 0x10000A588, symSize: 0x2A8 }
  - { offsetInCU: 0x21198, offset: 0x21198, size: 0x8, addend: 0x0, symName: __ZNSt3__13setIP5StateNS_4lessIS2_EENS_9allocatorIS2_EEE5clearB8ue170006Ev, symObjAddr: 0x8A68, symBinAddr: 0x10000A830, symSize: 0x24 }
  - { offsetInCU: 0x211BE, offset: 0x211BE, size: 0x8, addend: 0x0, symName: __ZNKSt3__16vectorIP5StateNS_9allocatorIS2_EEE5emptyB8ue170006Ev, symObjAddr: 0x8A8C, symBinAddr: 0x10000A854, symSize: 0xB0 }
  - { offsetInCU: 0x211E4, offset: 0x211E4, size: 0x8, addend: 0x0, symName: __ZNSt3__16vectorIP5StateNS_9allocatorIS2_EEEaSB8ue170006ERKS5_, symObjAddr: 0x8B3C, symBinAddr: 0x10000A904, symSize: 0xEC }
  - { offsetInCU: 0x2121B, offset: 0x2121B, size: 0x8, addend: 0x0, symName: __ZNSt3__16vectorIP5StateNS_9allocatorIS2_EEE5clearB8ue170006Ev, symObjAddr: 0x8C28, symBinAddr: 0x10000A9F0, symSize: 0x44 }
  - { offsetInCU: 0x21250, offset: 0x21250, size: 0x8, addend: 0x0, symName: __ZNSt3__13setIP5StateNS_4lessIS2_EENS_9allocatorIS2_EEED1B8ue170006Ev, symObjAddr: 0x8C6C, symBinAddr: 0x10000AA34, symSize: 0x2C }
  - { offsetInCU: 0x2127A, offset: 0x2127A, size: 0x8, addend: 0x0, symName: __ZNSt3__16vectorIP5StateNS_9allocatorIS2_EEE5beginB8ue170006Ev, symObjAddr: 0x8C98, symBinAddr: 0x10000AA60, symSize: 0x268 }
  - { offsetInCU: 0x212A3, offset: 0x212A3, size: 0x8, addend: 0x0, symName: __ZNSt3__16vectorIP5StateNS_9allocatorIS2_EEE3endB8ue170006Ev, symObjAddr: 0x8F34, symBinAddr: 0x10000ACFC, symSize: 0x26C }
  - { offsetInCU: 0x212CC, offset: 0x212CC, size: 0x8, addend: 0x0, symName: __ZNKSt3__111__wrap_iterIPP5StateEdeB8ue170006Ev, symObjAddr: 0x91A0, symBinAddr: 0x10000AF68, symSize: 0x60 }
  - { offsetInCU: 0x212F2, offset: 0x212F2, size: 0x8, addend: 0x0, symName: __ZNSt3__111__wrap_iterIPP5StateEppB8ue170006Ei, symObjAddr: 0x9A0C, symBinAddr: 0x10000B7D4, symSize: 0x20C }
  - { offsetInCU: 0x21336, offset: 0x21336, size: 0x8, addend: 0x0, symName: __ZNSt3__16vectorIP5StateNS_9allocatorIS2_EEED1B8ue170006Ev, symObjAddr: 0x9C18, symBinAddr: 0x10000B9E0, symSize: 0x2C }
  - { offsetInCU: 0x21360, offset: 0x21360, size: 0x8, addend: 0x0, symName: _main, symObjAddr: 0x9C44, symBinAddr: 0x10000BA0C, symSize: 0x774 }
  - { offsetInCU: 0x213D5, offset: 0x213D5, size: 0x8, addend: 0x0, symName: __ZNSt3__112basic_stringIcNS_11char_traitsIcEENS_9allocatorIcEEEC1B8ue170006ILi0EEEPKc, symObjAddr: 0xA3B8, symBinAddr: 0x10000C180, symSize: 0x34 }
  - { offsetInCU: 0x21414, offset: 0x21414, size: 0x8, addend: 0x0, symName: __ZNSt3__112basic_stringIcNS_11char_traitsIcEENS_9allocatorIcEEEaSB8ue170006EPKc, symObjAddr: 0xA3EC, symBinAddr: 0x10000C1B4, symSize: 0x2C }
  - { offsetInCU: 0x214D0, offset: 0x214D0, size: 0x8, addend: 0x0, symName: __ZN5RegexC1ENSt3__112basic_stringIcNS0_11char_traitsIcEENS0_9allocatorIcEEEE, symObjAddr: 0xA418, symBinAddr: 0x10000C1E0, symSize: 0x34 }
  - { offsetInCU: 0x21509, offset: 0x21509, size: 0x8, addend: 0x0, symName: __ZlsRNSt3__113basic_ostreamIcNS_11char_traitsIcEEEERK5Regex, symObjAddr: 0xA44C, symBinAddr: 0x10000C214, symSize: 0x78 }
  - { offsetInCU: 0x21547, offset: 0x21547, size: 0x8, addend: 0x0, symName: __ZN5Regex5matchENSt3__112basic_stringIcNS0_11char_traitsIcEENS0_9allocatorIcEEEE, symObjAddr: 0xA4C4, symBinAddr: 0x10000C28C, symSize: 0x2F4 }
  - { offsetInCU: 0x2157F, offset: 0x2157F, size: 0x8, addend: 0x0, symName: __ZN5RegexD1Ev, symObjAddr: 0xA7B8, symBinAddr: 0x10000C580, symSize: 0x2C }
  - { offsetInCU: 0x215A9, offset: 0x215A9, size: 0x8, addend: 0x0, symName: __ZNSt3__19basic_iosIcNS_11char_traitsIcEEEC2B8ue170006Ev, symObjAddr: 0xA7E4, symBinAddr: 0x10000C5AC, symSize: 0x84 }
  - { offsetInCU: 0x215D3, offset: 0x215D3, size: 0x8, addend: 0x0, symName: __ZNSt3__113basic_ostreamIcNS_11char_traitsIcEEEC2B8ue170006EPNS_15basic_streambufIcS2_EE, symObjAddr: 0xA868, symBinAddr: 0x10000C630, symSize: 0x1D4 }
  - { offsetInCU: 0x21618, offset: 0x21618, size: 0x8, addend: 0x0, symName: __ZNSt3__115basic_stringbufIcNS_11char_traitsIcEENS_9allocatorIcEEEC1B8ue170006Ev, symObjAddr: 0xAA3C, symBinAddr: 0x10000C804, symSize: 0x2C }
  - { offsetInCU: 0x21642, offset: 0x21642, size: 0x8, addend: 0x0, symName: __ZNSt3__19basic_iosIcNS_11char_traitsIcEEE5rdbufB8ue170006EPNS_15basic_streambufIcS2_EE, symObjAddr: 0xAA68, symBinAddr: 0x10000C830, symSize: 0x44 }
  - { offsetInCU: 0x21688, offset: 0x21688, size: 0x8, addend: 0x0, symName: __ZNKSt3__19basic_iosIcNS_11char_traitsIcEEE5rdbufB8ue170006Ev, symObjAddr: 0xAAAC, symBinAddr: 0x10000C874, symSize: 0x24 }
  - { offsetInCU: 0x216B5, offset: 0x216B5, size: 0x8, addend: 0x0, symName: __ZNSt3__115basic_stringbufIcNS_11char_traitsIcEENS_9allocatorIcEEED1Ev, symObjAddr: 0xAAD0, symBinAddr: 0x10000C898, symSize: 0x2C }
  - { offsetInCU: 0x216E2, offset: 0x216E2, size: 0x8, addend: 0x0, symName: __ZN11DebugStreamD0Ev, symObjAddr: 0xAAFC, symBinAddr: 0x10000C8C4, symSize: 0x58 }
  - { offsetInCU: 0x2170E, offset: 0x2170E, size: 0x8, addend: 0x0, symName: __ZTv0_n24_N11DebugStreamD1Ev, symObjAddr: 0xAB54, symBinAddr: 0x10000C91C, symSize: 0xB0 }
  - { offsetInCU: 0x21724, offset: 0x21724, size: 0x8, addend: 0x0, symName: __ZTv0_n24_N11DebugStreamD0Ev, symObjAddr: 0xAC04, symBinAddr: 0x10000C9CC, symSize: 0xA8 }
  - { offsetInCU: 0x2173A, offset: 0x2173A, size: 0x8, addend: 0x0, symName: __ZNSt3__18ios_baseC2B8ue170006Ev, symObjAddr: 0xACAC, symBinAddr: 0x10000CA74, symSize: 0x74 }
  - { offsetInCU: 0x21764, offset: 0x21764, size: 0x8, addend: 0x0, symName: __ZNSt3__19basic_iosIcNS_11char_traitsIcEEE4initB8ue170006EPNS_15basic_streambufIcS2_EE, symObjAddr: 0xAD20, symBinAddr: 0x10000CAE8, symSize: 0xEC }
  - { offsetInCU: 0x2179B, offset: 0x2179B, size: 0x8, addend: 0x0, symName: __ZNSt3__111char_traitsIcE3eofB8ue170006Ev, symObjAddr: 0xAE0C, symBinAddr: 0x10000CBD4, symSize: 0x8 }
  - { offsetInCU: 0x217AF, offset: 0x217AF, size: 0x8, addend: 0x0, symName: __ZNSt3__115basic_stringbufIcNS_11char_traitsIcEENS_9allocatorIcEEEC2B8ue170006Ev, symObjAddr: 0xAE14, symBinAddr: 0x10000CBDC, symSize: 0x168 }
  - { offsetInCU: 0x217D9, offset: 0x217D9, size: 0x8, addend: 0x0, symName: __ZNSt3__18ios_base5rdbufB8ue170006EPv, symObjAddr: 0xAF7C, symBinAddr: 0x10000CD44, symSize: 0x7C }
  - { offsetInCU: 0x2180E, offset: 0x2180E, size: 0x8, addend: 0x0, symName: __ZNKSt3__18ios_base5rdbufB8ue170006Ev, symObjAddr: 0xAFF8, symBinAddr: 0x10000CDC0, symSize: 0x64 }
  - { offsetInCU: 0x21834, offset: 0x21834, size: 0x8, addend: 0x0, symName: __ZNSt3__115basic_stringbufIcNS_11char_traitsIcEENS_9allocatorIcEEED2Ev, symObjAddr: 0xB05C, symBinAddr: 0x10000CE24, symSize: 0xC4 }
  - { offsetInCU: 0x21861, offset: 0x21861, size: 0x8, addend: 0x0, symName: __ZN11DebugStreamD2Ev, symObjAddr: 0xB120, symBinAddr: 0x10000CEE8, symSize: 0x1DC }
  - { offsetInCU: 0x2189A, offset: 0x2189A, size: 0x8, addend: 0x0, symName: __ZN8FragmentC2Ev, symObjAddr: 0xB2FC, symBinAddr: 0x10000D0C4, symSize: 0x9C }
  - { offsetInCU: 0x218C4, offset: 0x218C4, size: 0x8, addend: 0x0, symName: __ZNK5State2idEv, symObjAddr: 0xB398, symBinAddr: 0x10000D160, symSize: 0x8C }
  - { offsetInCU: 0x218EA, offset: 0x218EA, size: 0x8, addend: 0x0, symName: __ZNKSt3__13setIP5StateNS_4lessIS2_EENS_9allocatorIS2_EEE4sizeB8ue170006Ev, symObjAddr: 0xB424, symBinAddr: 0x10000D1EC, symSize: 0x6C }
  - { offsetInCU: 0x21910, offset: 0x21910, size: 0x8, addend: 0x0, symName: __ZNSt3__13setIP5StateNS_4lessIS2_EENS_9allocatorIS2_EEE5beginB8ue170006Ev, symObjAddr: 0xB490, symBinAddr: 0x10000D258, symSize: 0x2B4 }
  - { offsetInCU: 0x21937, offset: 0x21937, size: 0x8, addend: 0x0, symName: __ZNKSt3__121__tree_const_iteratorIP5StatePNS_11__tree_nodeIS2_PvEElEdeB8ue170006Ev, symObjAddr: 0xB744, symBinAddr: 0x10000D50C, symSize: 0x28 }
  - { offsetInCU: 0x2195D, offset: 0x2195D, size: 0x8, addend: 0x0, symName: __ZNSt3__121__tree_const_iteratorIP5StatePNS_11__tree_nodeIS2_PvEElEppB8ue170006Ei, symObjAddr: 0xB76C, symBinAddr: 0x10000D534, symSize: 0x20C }
  - { offsetInCU: 0x219A3, offset: 0x219A3, size: 0x8, addend: 0x0, symName: __ZNKSt3__16__treeIP5StateNS_4lessIS2_EENS_9allocatorIS2_EEE4sizeB8ue170006Ev, symObjAddr: 0xB978, symBinAddr: 0x10000D740, symSize: 0x28 }
  - { offsetInCU: 0x219C9, offset: 0x219C9, size: 0x8, addend: 0x0, symName: __ZNKSt3__117__compressed_pairImNS_4lessIP5StateEEE5firstB8ue170006Ev, symObjAddr: 0xB9A0, symBinAddr: 0x10000D768, symSize: 0x24 }
  - { offsetInCU: 0x219EF, offset: 0x219EF, size: 0x8, addend: 0x0, symName: __ZNKSt3__122__compressed_pair_elemImLi0ELb0EE5__getB8ue170006Ev, symObjAddr: 0xB9C4, symBinAddr: 0x10000D78C, symSize: 0x14 }
  - { offsetInCU: 0x21A15, offset: 0x21A15, size: 0x8, addend: 0x0, symName: __ZNSt3__16__treeIP5StateNS_4lessIS2_EENS_9allocatorIS2_EEE5beginB8ue170006Ev, symObjAddr: 0xB9D8, symBinAddr: 0x10000D7A0, symSize: 0x238 }
  - { offsetInCU: 0x21A3C, offset: 0x21A3C, size: 0x8, addend: 0x0, symName: __ZNSt3__121__tree_const_iteratorIP5StatePNS_11__tree_nodeIS2_PvEElEC1B8ue170006ENS_15__tree_iteratorIS2_S6_lEE, symObjAddr: 0xBC10, symBinAddr: 0x10000D9D8, symSize: 0x238 }
  - { offsetInCU: 0x21A7A, offset: 0x21A7A, size: 0x8, addend: 0x0, symName: __ZNSt3__16__treeIP5StateNS_4lessIS2_EENS_9allocatorIS2_EEE12__begin_nodeB8ue170006Ev, symObjAddr: 0xBE48, symBinAddr: 0x10000DC10, symSize: 0x14 }
  - { offsetInCU: 0x21AA0, offset: 0x21AA0, size: 0x8, addend: 0x0, symName: __ZNSt3__115__tree_iteratorIP5StatePNS_11__tree_nodeIS2_PvEElEC1B8ue170006EPNS_15__tree_end_nodeIPNS_16__tree_node_baseIS4_EEEE, symObjAddr: 0xBE5C, symBinAddr: 0x10000DC24, symSize: 0x34 }
  - { offsetInCU: 0x21AD9, offset: 0x21AD9, size: 0x8, addend: 0x0, symName: __ZNSt3__115__tree_iteratorIP5StatePNS_11__tree_nodeIS2_PvEElEC2B8ue170006EPNS_15__tree_end_nodeIPNS_16__tree_node_baseIS4_EEEE, symObjAddr: 0xBE90, symBinAddr: 0x10000DC58, symSize: 0x70 }
  - { offsetInCU: 0x21B12, offset: 0x21B12, size: 0x8, addend: 0x0, symName: __ZNSt3__121__tree_const_iteratorIP5StatePNS_11__tree_nodeIS2_PvEElEC2B8ue170006ENS_15__tree_iteratorIS2_S6_lEE, symObjAddr: 0xBF00, symBinAddr: 0x10000DCC8, symSize: 0x270 }
  - { offsetInCU: 0x21B50, offset: 0x21B50, size: 0x8, addend: 0x0, symName: __ZNKSt3__121__tree_const_iteratorIP5StatePNS_11__tree_nodeIS2_PvEElE8__get_npB8ue170006Ev, symObjAddr: 0xC170, symBinAddr: 0x10000DF38, symSize: 0x60 }
  - { offsetInCU: 0x21B76, offset: 0x21B76, size: 0x8, addend: 0x0, symName: __ZNSt3__121__tree_const_iteratorIP5StatePNS_11__tree_nodeIS2_PvEElEppB8ue170006Ev, symObjAddr: 0xC1D0, symBinAddr: 0x10000DF98, symSize: 0xA8 }
  - { offsetInCU: 0x21B9C, offset: 0x21B9C, size: 0x8, addend: 0x0, symName: __ZNKSt3__116__tree_node_baseIPvE15__parent_unsafeB8ue170006Ev, symObjAddr: 0xC558, symBinAddr: 0x10000E320, symSize: 0x64 }
  - { offsetInCU: 0x21BC2, offset: 0x21BC2, size: 0x8, addend: 0x0, symName: __ZN5StateC2Ev, symObjAddr: 0xC5BC, symBinAddr: 0x10000E384, symSize: 0x2F8 }
  - { offsetInCU: 0x21BEC, offset: 0x21BEC, size: 0x8, addend: 0x0, symName: __ZNSt3__13setIP5StateNS_4lessIS2_EENS_9allocatorIS2_EEE6insertB8ue170006INS_21__tree_const_iteratorIS2_PNS_11__tree_nodeIS2_PvEElEEEEvT_SF_, symObjAddr: 0xC8B4, symBinAddr: 0x10000E67C, symSize: 0x408 }
  - { offsetInCU: 0x21C63, offset: 0x21C63, size: 0x8, addend: 0x0, symName: __ZNKSt3__13setIP5StateNS_4lessIS2_EENS_9allocatorIS2_EEE4cendB8ue170006Ev, symObjAddr: 0xCCBC, symBinAddr: 0x10000EA84, symSize: 0x234 }
  - { offsetInCU: 0x21C8A, offset: 0x21C8A, size: 0x8, addend: 0x0, symName: __ZNSt3__16__treeIP5StateNS_4lessIS2_EENS_9allocatorIS2_EEE15__insert_uniqueB8ue170006ENS_21__tree_const_iteratorIS2_PNS_11__tree_nodeIS2_PvEElEERKS2_, symObjAddr: 0xCEF0, symBinAddr: 0x10000ECB8, symSize: 0x3A4 }
  - { offsetInCU: 0x21CD4, offset: 0x21CD4, size: 0x8, addend: 0x0, symName: __ZNKSt3__13setIP5StateNS_4lessIS2_EENS_9allocatorIS2_EEE3endB8ue170006Ev, symObjAddr: 0xD294, symBinAddr: 0x10000F05C, symSize: 0x234 }
  - { offsetInCU: 0x21CFB, offset: 0x21CFB, size: 0x8, addend: 0x0, symName: __ZNKSt3__16__treeIP5StateNS_4lessIS2_EENS_9allocatorIS2_EEE3endB8ue170006Ev, symObjAddr: 0xD4C8, symBinAddr: 0x10000F290, symSize: 0x204 }
  - { offsetInCU: 0x21D22, offset: 0x21D22, size: 0x8, addend: 0x0, symName: __ZNKSt3__16__treeIP5StateNS_4lessIS2_EENS_9allocatorIS2_EEE10__end_nodeB8ue170006Ev, symObjAddr: 0xD6CC, symBinAddr: 0x10000F494, symSize: 0x2C }
  - { offsetInCU: 0x21D48, offset: 0x21D48, size: 0x8, addend: 0x0, symName: __ZNSt3__121__tree_const_iteratorIP5StatePNS_11__tree_nodeIS2_PvEElEC1B8ue170006EPNS_15__tree_end_nodeIPNS_16__tree_node_baseIS4_EEEE, symObjAddr: 0xD6F8, symBinAddr: 0x10000F4C0, symSize: 0x34 }
  - { offsetInCU: 0x21D81, offset: 0x21D81, size: 0x8, addend: 0x0, symName: __ZNSt3__114pointer_traitsIPNS_15__tree_end_nodeIPNS_16__tree_node_baseIPvEEEEE10pointer_toB8ue170006ERS6_, symObjAddr: 0xD72C, symBinAddr: 0x10000F4F4, symSize: 0x14 }
  - { offsetInCU: 0x21DA4, offset: 0x21DA4, size: 0x8, addend: 0x0, symName: __ZNKSt3__117__compressed_pairINS_15__tree_end_nodeIPNS_16__tree_node_baseIPvEEEENS_9allocatorINS_11__tree_nodeIP5StateS3_EEEEE5firstB8ue170006Ev, symObjAddr: 0xD740, symBinAddr: 0x10000F508, symSize: 0x24 }
  - { offsetInCU: 0x21DCA, offset: 0x21DCA, size: 0x8, addend: 0x0, symName: __ZNKSt3__122__compressed_pair_elemINS_15__tree_end_nodeIPNS_16__tree_node_baseIPvEEEELi0ELb0EE5__getB8ue170006Ev, symObjAddr: 0xD764, symBinAddr: 0x10000F52C, symSize: 0x14 }
  - { offsetInCU: 0x21DF0, offset: 0x21DF0, size: 0x8, addend: 0x0, symName: __ZNSt3__121__tree_const_iteratorIP5StatePNS_11__tree_nodeIS2_PvEElEC2B8ue170006EPNS_15__tree_end_nodeIPNS_16__tree_node_baseIS4_EEEE, symObjAddr: 0xD778, symBinAddr: 0x10000F540, symSize: 0x70 }
  - { offsetInCU: 0x21E29, offset: 0x21E29, size: 0x8, addend: 0x0, symName: __ZNSt3__16__treeIP5StateNS_4lessIS2_EENS_9allocatorIS2_EEE30__emplace_hint_unique_key_argsIS2_JRKS2_EEENS_4pairINS_15__tree_iteratorIS2_PNS_11__tree_nodeIS2_PvEElEEbEENS_21__tree_const_iteratorIS2_SG_lEERKT_DpOT0_, symObjAddr: 0xD7E8, symBinAddr: 0x10000F5B0, symSize: 0x604 }
  - { offsetInCU: 0x21F0E, offset: 0x21F0E, size: 0x8, addend: 0x0, symName: __ZNSt3__122__tree_key_value_typesIP5StateE9__get_keyB8ue170006ERKS2_, symObjAddr: 0xDDEC, symBinAddr: 0x10000FBB4, symSize: 0x14 }
  - { offsetInCU: 0x21F32, offset: 0x21F32, size: 0x8, addend: 0x0, symName: __ZNSt3__16__treeIP5StateNS_4lessIS2_EENS_9allocatorIS2_EEE12__find_equalIS2_EERPNS_16__tree_node_baseIPvEENS_21__tree_const_iteratorIS2_PNS_11__tree_nodeIS2_SA_EElEERPNS_15__tree_end_nodeISC_EESD_RKT_, symObjAddr: 0xDE00, symBinAddr: 0x10000FBC8, symSize: 0xC4C }
  - { offsetInCU: 0x21FEB, offset: 0x21FEB, size: 0x8, addend: 0x0, symName: __ZNSt3__16__treeIP5StateNS_4lessIS2_EENS_9allocatorIS2_EEE16__construct_nodeIJRKS2_EEENS_10unique_ptrINS_11__tree_nodeIS2_PvEENS_22__tree_node_destructorINS5_ISE_EEEEEEDpOT_, symObjAddr: 0xEA4C, symBinAddr: 0x100010814, symSize: 0x398 }
  - { offsetInCU: 0x22050, offset: 0x22050, size: 0x8, addend: 0x0, symName: __ZNSt3__16__treeIP5StateNS_4lessIS2_EENS_9allocatorIS2_EEE16__insert_node_atEPNS_15__tree_end_nodeIPNS_16__tree_node_baseIPvEEEERSC_SC_, symObjAddr: 0xEDE4, symBinAddr: 0x100010BAC, symSize: 0x370 }
  - { offsetInCU: 0x220A5, offset: 0x220A5, size: 0x8, addend: 0x0, symName: __ZNKSt3__110unique_ptrINS_11__tree_nodeIP5StatePvEENS_22__tree_node_destructorINS_9allocatorIS5_EEEEE3getB8ue170006Ev, symObjAddr: 0xF154, symBinAddr: 0x100010F1C, symSize: 0x6C }
  - { offsetInCU: 0x220CB, offset: 0x220CB, size: 0x8, addend: 0x0, symName: __ZNSt3__110unique_ptrINS_11__tree_nodeIP5StatePvEENS_22__tree_node_destructorINS_9allocatorIS5_EEEEE7releaseB8ue170006Ev, symObjAddr: 0xF1C0, symBinAddr: 0x100010F88, symSize: 0xB8 }
  - { offsetInCU: 0x22100, offset: 0x22100, size: 0x8, addend: 0x0, symName: __ZNSt3__110unique_ptrINS_11__tree_nodeIP5StatePvEENS_22__tree_node_destructorINS_9allocatorIS5_EEEEED1B8ue170006Ev, symObjAddr: 0xF278, symBinAddr: 0x100011040, symSize: 0x2C }
  - { offsetInCU: 0x2212A, offset: 0x2212A, size: 0x8, addend: 0x0, symName: __ZNSt3__115__tree_iteratorIP5StatePNS_11__tree_nodeIS2_PvEElEC1B8ue170006ES6_, symObjAddr: 0xF2A4, symBinAddr: 0x10001106C, symSize: 0x34 }
  - { offsetInCU: 0x22163, offset: 0x22163, size: 0x8, addend: 0x0, symName: __ZNSt3__14pairINS_15__tree_iteratorIP5StatePNS_11__tree_nodeIS3_PvEElEEbEC1B8ue170006ERKS8_RKb, symObjAddr: 0xF2D8, symBinAddr: 0x1000110A0, symSize: 0x3C }
  - { offsetInCU: 0x221A9, offset: 0x221A9, size: 0x8, addend: 0x0, symName: __ZNSt3__16__treeIP5StateNS_4lessIS2_EENS_9allocatorIS2_EEE3endB8ue170006Ev, symObjAddr: 0xF3CC, symBinAddr: 0x100011194, symSize: 0x204 }
  - { offsetInCU: 0x221D0, offset: 0x221D0, size: 0x8, addend: 0x0, symName: __ZNSt3__16__treeIP5StateNS_4lessIS2_EENS_9allocatorIS2_EEE10value_compB8ue170006Ev, symObjAddr: 0xF5D0, symBinAddr: 0x100011398, symSize: 0x28 }
  - { offsetInCU: 0x221F6, offset: 0x221F6, size: 0x8, addend: 0x0, symName: __ZNKSt3__14lessIP5StateEclB8ue170006ERKS2_S5_, symObjAddr: 0xF5F8, symBinAddr: 0x1000113C0, symSize: 0xBC }
  - { offsetInCU: 0x2223A, offset: 0x2223A, size: 0x8, addend: 0x0, symName: __ZNSt3__121__tree_const_iteratorIP5StatePNS_11__tree_nodeIS2_PvEElEmmB8ue170006Ev, symObjAddr: 0xF6B4, symBinAddr: 0x10001147C, symSize: 0xA8 }
  - { offsetInCU: 0x22260, offset: 0x22260, size: 0x8, addend: 0x0, symName: __ZNSt3__16__treeIP5StateNS_4lessIS2_EENS_9allocatorIS2_EEE12__find_equalIS2_EERPNS_16__tree_node_baseIPvEERPNS_15__tree_end_nodeISC_EERKT_, symObjAddr: 0xF75C, symBinAddr: 0x100011524, symSize: 0x3F0 }
  - { offsetInCU: 0x222CD, offset: 0x222CD, size: 0x8, addend: 0x0, symName: __ZNSt3__16__treeIP5StateNS_4lessIS2_EENS_9allocatorIS2_EEE10__end_nodeB8ue170006Ev, symObjAddr: 0xFDD4, symBinAddr: 0x100011B9C, symSize: 0x2C }
  - { offsetInCU: 0x222F3, offset: 0x222F3, size: 0x8, addend: 0x0, symName: __ZNSt3__117__compressed_pairINS_15__tree_end_nodeIPNS_16__tree_node_baseIPvEEEENS_9allocatorINS_11__tree_nodeIP5StateS3_EEEEE5firstB8ue170006Ev, symObjAddr: 0xFE00, symBinAddr: 0x100011BC8, symSize: 0x24 }
  - { offsetInCU: 0x22319, offset: 0x22319, size: 0x8, addend: 0x0, symName: __ZNSt3__122__compressed_pair_elemINS_15__tree_end_nodeIPNS_16__tree_node_baseIPvEEEELi0ELb0EE5__getB8ue170006Ev, symObjAddr: 0xFE24, symBinAddr: 0x100011BEC, symSize: 0x14 }
  - { offsetInCU: 0x2233F, offset: 0x2233F, size: 0x8, addend: 0x0, symName: __ZNSt3__117__compressed_pairImNS_4lessIP5StateEEE6secondB8ue170006Ev, symObjAddr: 0xFE38, symBinAddr: 0x100011C00, symSize: 0x24 }
  - { offsetInCU: 0x22365, offset: 0x22365, size: 0x8, addend: 0x0, symName: __ZNSt3__122__compressed_pair_elemINS_4lessIP5StateEELi1ELb1EE5__getB8ue170006Ev, symObjAddr: 0xFE5C, symBinAddr: 0x100011C24, symSize: 0x14 }
  - { offsetInCU: 0x2238B, offset: 0x2238B, size: 0x8, addend: 0x0, symName: __ZNKSt3__16__treeIP5StateNS_4lessIS2_EENS_9allocatorIS2_EEE6__rootB8ue170006Ev, symObjAddr: 0x10038, symBinAddr: 0x100011E00, symSize: 0x6C }
  - { offsetInCU: 0x223B1, offset: 0x223B1, size: 0x8, addend: 0x0, symName: __ZNKSt3__16__treeIP5StateNS_4lessIS2_EENS_9allocatorIS2_EEE10__root_ptrB8ue170006Ev, symObjAddr: 0x100A4, symBinAddr: 0x100011E6C, symSize: 0x24 }
  - { offsetInCU: 0x223D7, offset: 0x223D7, size: 0x8, addend: 0x0, symName: __ZNSt3__16__treeIP5StateNS_4lessIS2_EENS_9allocatorIS2_EEE12__node_allocB8ue170006Ev, symObjAddr: 0x101B8, symBinAddr: 0x100011F80, symSize: 0x28 }
  - { offsetInCU: 0x223FD, offset: 0x223FD, size: 0x8, addend: 0x0, symName: __ZNSt3__116allocator_traitsINS_9allocatorINS_11__tree_nodeIP5StatePvEEEEE8allocateB8ue170006ERS7_m, symObjAddr: 0x101E0, symBinAddr: 0x100011FA8, symSize: 0x2C }
  - { offsetInCU: 0x22430, offset: 0x22430, size: 0x8, addend: 0x0, symName: __ZNSt3__122__tree_node_destructorINS_9allocatorINS_11__tree_nodeIP5StatePvEEEEEC1B8ue170006ERS7_b, symObjAddr: 0x1020C, symBinAddr: 0x100011FD4, symSize: 0x48 }
  - { offsetInCU: 0x2247E, offset: 0x2247E, size: 0x8, addend: 0x0, symName: __ZNSt3__110unique_ptrINS_11__tree_nodeIP5StatePvEENS_22__tree_node_destructorINS_9allocatorIS5_EEEEEC1B8ue170006ILb1EvEEPS5_NS_16__dependent_typeINS_27__unique_ptr_deleter_sfinaeIS9_EEXT_EE20__good_rval_ref_typeE, symObjAddr: 0x10254, symBinAddr: 0x10001201C, symSize: 0x3C }
  - { offsetInCU: 0x224CF, offset: 0x224CF, size: 0x8, addend: 0x0, symName: __ZNSt3__116allocator_traitsINS_9allocatorINS_11__tree_nodeIP5StatePvEEEEE9constructB8ue170006IS4_JRKS4_EvEEvRS7_PT_DpOT0_, symObjAddr: 0x10290, symBinAddr: 0x100012058, symSize: 0x34 }
  - { offsetInCU: 0x22526, offset: 0x22526, size: 0x8, addend: 0x0, symName: __ZNSt3__122__tree_key_value_typesIP5StateE9__get_ptrB8ue170006ERS2_, symObjAddr: 0x102C4, symBinAddr: 0x10001208C, symSize: 0x14 }
  - { offsetInCU: 0x2254A, offset: 0x2254A, size: 0x8, addend: 0x0, symName: __ZNKSt3__110unique_ptrINS_11__tree_nodeIP5StatePvEENS_22__tree_node_destructorINS_9allocatorIS5_EEEEEptB8ue170006Ev, symObjAddr: 0x102D8, symBinAddr: 0x1000120A0, symSize: 0x6C }
  - { offsetInCU: 0x22570, offset: 0x22570, size: 0x8, addend: 0x0, symName: __ZNSt3__110unique_ptrINS_11__tree_nodeIP5StatePvEENS_22__tree_node_destructorINS_9allocatorIS5_EEEEE11get_deleterB8ue170006Ev, symObjAddr: 0x10344, symBinAddr: 0x10001210C, symSize: 0x24 }
  - { offsetInCU: 0x22596, offset: 0x22596, size: 0x8, addend: 0x0, symName: __ZNSt3__117__compressed_pairINS_15__tree_end_nodeIPNS_16__tree_node_baseIPvEEEENS_9allocatorINS_11__tree_nodeIP5StateS3_EEEEE6secondB8ue170006Ev, symObjAddr: 0x10368, symBinAddr: 0x100012130, symSize: 0x24 }
  - { offsetInCU: 0x225BC, offset: 0x225BC, size: 0x8, addend: 0x0, symName: __ZNSt3__122__compressed_pair_elemINS_9allocatorINS_11__tree_nodeIP5StatePvEEEELi1ELb1EE5__getB8ue170006Ev, symObjAddr: 0x1038C, symBinAddr: 0x100012154, symSize: 0x14 }
  - { offsetInCU: 0x225E2, offset: 0x225E2, size: 0x8, addend: 0x0, symName: __ZNSt3__19allocatorINS_11__tree_nodeIP5StatePvEEE8allocateB8ue170006Em, symObjAddr: 0x103A0, symBinAddr: 0x100012168, symSize: 0x90 }
  - { offsetInCU: 0x22620, offset: 0x22620, size: 0x8, addend: 0x0, symName: __ZNSt3__116allocator_traitsINS_9allocatorINS_11__tree_nodeIP5StatePvEEEEE8max_sizeB8ue170006IS7_vEEmRKS7_, symObjAddr: 0x10430, symBinAddr: 0x1000121F8, symSize: 0x24 }
  - { offsetInCU: 0x2264E, offset: 0x2264E, size: 0x8, addend: 0x0, symName: __ZNKSt3__19allocatorINS_11__tree_nodeIP5StatePvEEE8max_sizeB8ue170006Ev, symObjAddr: 0x104C0, symBinAddr: 0x100012288, symSize: 0x18 }
  - { offsetInCU: 0x22674, offset: 0x22674, size: 0x8, addend: 0x0, symName: __ZNSt3__122__tree_node_destructorINS_9allocatorINS_11__tree_nodeIP5StatePvEEEEEC2B8ue170006ERS7_b, symObjAddr: 0x104FC, symBinAddr: 0x1000122C4, symSize: 0xF0 }
  - { offsetInCU: 0x226BC, offset: 0x226BC, size: 0x8, addend: 0x0, symName: __ZNSt3__110unique_ptrINS_11__tree_nodeIP5StatePvEENS_22__tree_node_destructorINS_9allocatorIS5_EEEEEC2B8ue170006ILb1EvEEPS5_NS_16__dependent_typeINS_27__unique_ptr_deleter_sfinaeIS9_EEXT_EE20__good_rval_ref_typeE, symObjAddr: 0x105EC, symBinAddr: 0x1000123B4, symSize: 0x230 }
  - { offsetInCU: 0x22713, offset: 0x22713, size: 0x8, addend: 0x0, symName: __ZNSt3__117__compressed_pairIPNS_11__tree_nodeIP5StatePvEENS_22__tree_node_destructorINS_9allocatorIS5_EEEEEC1B8ue170006IRS6_SA_EEOT_OT0_, symObjAddr: 0x1081C, symBinAddr: 0x1000125E4, symSize: 0x3C }
  - { offsetInCU: 0x2276B, offset: 0x2276B, size: 0x8, addend: 0x0, symName: __ZNSt3__117__compressed_pairIPNS_11__tree_nodeIP5StatePvEENS_22__tree_node_destructorINS_9allocatorIS5_EEEEEC2B8ue170006IRS6_SA_EEOT_OT0_, symObjAddr: 0x10858, symBinAddr: 0x100012620, symSize: 0x48 }
  - { offsetInCU: 0x227C3, offset: 0x227C3, size: 0x8, addend: 0x0, symName: __ZNSt3__122__compressed_pair_elemIPNS_11__tree_nodeIP5StatePvEELi0ELb0EEC2B8ue170006IRS6_vEEOT_, symObjAddr: 0x108A0, symBinAddr: 0x100012668, symSize: 0xB0 }
  - { offsetInCU: 0x22805, offset: 0x22805, size: 0x8, addend: 0x0, symName: __ZNSt3__122__compressed_pair_elemINS_22__tree_node_destructorINS_9allocatorINS_11__tree_nodeIP5StatePvEEEEEELi1ELb0EEC2B8ue170006IS9_vEEOT_, symObjAddr: 0x10950, symBinAddr: 0x100012718, symSize: 0x38 }
  - { offsetInCU: 0x22847, offset: 0x22847, size: 0x8, addend: 0x0, symName: __ZNSt3__19allocatorINS_11__tree_nodeIP5StatePvEEE9constructB8ue170006IS3_JRKS3_EEEvPT_DpOT0_, symObjAddr: 0x10988, symBinAddr: 0x100012750, symSize: 0xB4 }
  - { offsetInCU: 0x2289D, offset: 0x2289D, size: 0x8, addend: 0x0, symName: __ZNKSt3__117__compressed_pairIPNS_11__tree_nodeIP5StatePvEENS_22__tree_node_destructorINS_9allocatorIS5_EEEEE5firstB8ue170006Ev, symObjAddr: 0x10A3C, symBinAddr: 0x100012804, symSize: 0x24 }
  - { offsetInCU: 0x228C3, offset: 0x228C3, size: 0x8, addend: 0x0, symName: __ZNKSt3__122__compressed_pair_elemIPNS_11__tree_nodeIP5StatePvEELi0ELb0EE5__getB8ue170006Ev, symObjAddr: 0x10A60, symBinAddr: 0x100012828, symSize: 0x14 }
  - { offsetInCU: 0x228E9, offset: 0x228E9, size: 0x8, addend: 0x0, symName: __ZNSt3__117__compressed_pairIPNS_11__tree_nodeIP5StatePvEENS_22__tree_node_destructorINS_9allocatorIS5_EEEEE6secondB8ue170006Ev, symObjAddr: 0x10A74, symBinAddr: 0x10001283C, symSize: 0x28 }
  - { offsetInCU: 0x2290F, offset: 0x2290F, size: 0x8, addend: 0x0, symName: __ZNSt3__122__compressed_pair_elemINS_22__tree_node_destructorINS_9allocatorINS_11__tree_nodeIP5StatePvEEEEEELi1ELb0EE5__getB8ue170006Ev, symObjAddr: 0x10A9C, symBinAddr: 0x100012864, symSize: 0x14 }
  - { offsetInCU: 0x22935, offset: 0x22935, size: 0x8, addend: 0x0, symName: __ZNSt3__16__treeIP5StateNS_4lessIS2_EENS_9allocatorIS2_EEE4sizeB8ue170006Ev, symObjAddr: 0x11358, symBinAddr: 0x100013120, symSize: 0x28 }
  - { offsetInCU: 0x2295B, offset: 0x2295B, size: 0x8, addend: 0x0, symName: __ZNSt3__116__tree_node_baseIPvE12__set_parentB8ue170006EPS2_, symObjAddr: 0x11A5C, symBinAddr: 0x100013824, symSize: 0x74 }
  - { offsetInCU: 0x22990, offset: 0x22990, size: 0x8, addend: 0x0, symName: __ZNSt3__117__compressed_pairImNS_4lessIP5StateEEE5firstB8ue170006Ev, symObjAddr: 0x11AD0, symBinAddr: 0x100013898, symSize: 0x24 }
  - { offsetInCU: 0x229B6, offset: 0x229B6, size: 0x8, addend: 0x0, symName: __ZNSt3__122__compressed_pair_elemImLi0ELb0EE5__getB8ue170006Ev, symObjAddr: 0x11AF4, symBinAddr: 0x1000138BC, symSize: 0x14 }
  - { offsetInCU: 0x229DC, offset: 0x229DC, size: 0x8, addend: 0x0, symName: __ZNSt3__117__compressed_pairIPNS_11__tree_nodeIP5StatePvEENS_22__tree_node_destructorINS_9allocatorIS5_EEEEE5firstB8ue170006Ev, symObjAddr: 0x11B08, symBinAddr: 0x1000138D0, symSize: 0x24 }
  - { offsetInCU: 0x22A02, offset: 0x22A02, size: 0x8, addend: 0x0, symName: __ZNSt3__122__compressed_pair_elemIPNS_11__tree_nodeIP5StatePvEELi0ELb0EE5__getB8ue170006Ev, symObjAddr: 0x11B2C, symBinAddr: 0x1000138F4, symSize: 0x14 }
  - { offsetInCU: 0x22A28, offset: 0x22A28, size: 0x8, addend: 0x0, symName: __ZNSt3__110unique_ptrINS_11__tree_nodeIP5StatePvEENS_22__tree_node_destructorINS_9allocatorIS5_EEEEED2B8ue170006Ev, symObjAddr: 0x11B40, symBinAddr: 0x100013908, symSize: 0x30 }
  - { offsetInCU: 0x22A52, offset: 0x22A52, size: 0x8, addend: 0x0, symName: __ZNSt3__110unique_ptrINS_11__tree_nodeIP5StatePvEENS_22__tree_node_destructorINS_9allocatorIS5_EEEEE5resetB8ue170006EPS5_, symObjAddr: 0x11B70, symBinAddr: 0x100013938, symSize: 0xEC }
  - { offsetInCU: 0x22A96, offset: 0x22A96, size: 0x8, addend: 0x0, symName: __ZNSt3__122__tree_node_destructorINS_9allocatorINS_11__tree_nodeIP5StatePvEEEEEclB8ue170006EPS6_, symObjAddr: 0x11C5C, symBinAddr: 0x100013A24, symSize: 0x174 }
  - { offsetInCU: 0x22ACB, offset: 0x22ACB, size: 0x8, addend: 0x0, symName: __ZNSt3__116allocator_traitsINS_9allocatorINS_11__tree_nodeIP5StatePvEEEEE7destroyB8ue170006IS4_vvEEvRS7_PT_, symObjAddr: 0x11DD0, symBinAddr: 0x100013B98, symSize: 0x14 }
  - { offsetInCU: 0x22B05, offset: 0x22B05, size: 0x8, addend: 0x0, symName: __ZNSt3__116allocator_traitsINS_9allocatorINS_11__tree_nodeIP5StatePvEEEEE10deallocateB8ue170006ERS7_PS6_m, symObjAddr: 0x11DE4, symBinAddr: 0x100013BAC, symSize: 0x34 }
  - { offsetInCU: 0x22B47, offset: 0x22B47, size: 0x8, addend: 0x0, symName: __ZNSt3__19allocatorINS_11__tree_nodeIP5StatePvEEE10deallocateB8ue170006EPS5_m, symObjAddr: 0x11E18, symBinAddr: 0x100013BE0, symSize: 0x80 }
  - { offsetInCU: 0x22B89, offset: 0x22B89, size: 0x8, addend: 0x0, symName: __ZNSt3__115__tree_iteratorIP5StatePNS_11__tree_nodeIS2_PvEElEC2B8ue170006ES6_, symObjAddr: 0x11F14, symBinAddr: 0x100013CDC, symSize: 0x70 }
  - { offsetInCU: 0x22BC2, offset: 0x22BC2, size: 0x8, addend: 0x0, symName: __ZNSt3__14pairINS_15__tree_iteratorIP5StatePNS_11__tree_nodeIS3_PvEElEEbEC2B8ue170006ERKS8_RKb, symObjAddr: 0x11F84, symBinAddr: 0x100013D4C, symSize: 0x120 }
  - { offsetInCU: 0x22C08, offset: 0x22C08, size: 0x8, addend: 0x0, symName: __ZN9StateListC2EP5State, symObjAddr: 0x120A4, symBinAddr: 0x100013E6C, symSize: 0x328 }
  - { offsetInCU: 0x22C46, offset: 0x22C46, size: 0x8, addend: 0x0, symName: __ZN5StateC2EcPS_, symObjAddr: 0x123CC, symBinAddr: 0x100014194, symSize: 0x308 }
  - { offsetInCU: 0x22C8C, offset: 0x22C8C, size: 0x8, addend: 0x0, symName: __ZN5StateC2Eb, symObjAddr: 0x126D4, symBinAddr: 0x10001449C, symSize: 0x318 }
  - { offsetInCU: 0x22CC4, offset: 0x22CC4, size: 0x8, addend: 0x0, symName: __ZN9StateListD2Ev, symObjAddr: 0x129EC, symBinAddr: 0x1000147B4, symSize: 0x2C }
  - { offsetInCU: 0x22CF1, offset: 0x22CF1, size: 0x8, addend: 0x0, symName: __ZNSt3__15stackIcNS_5dequeIcNS_9allocatorIcEEEEED2Ev, symObjAddr: 0x12A18, symBinAddr: 0x1000147E0, symSize: 0x2C }
  - { offsetInCU: 0x22D1D, offset: 0x22D1D, size: 0x8, addend: 0x0, symName: __ZNSt3__15dequeIcNS_9allocatorIcEEED1B8ue170006Ev, symObjAddr: 0x12A44, symBinAddr: 0x10001480C, symSize: 0x2C }
  - { offsetInCU: 0x22D47, offset: 0x22D47, size: 0x8, addend: 0x0, symName: __ZNSt3__15dequeIcNS_9allocatorIcEEED2B8ue170006Ev, symObjAddr: 0x12A70, symBinAddr: 0x100014838, symSize: 0xF0 }
  - { offsetInCU: 0x22D9D, offset: 0x22D9D, size: 0x8, addend: 0x0, symName: __ZNSt3__15dequeIcNS_9allocatorIcEEE5clearEv, symObjAddr: 0x12B60, symBinAddr: 0x100014928, symSize: 0x528 }
  - { offsetInCU: 0x22E0A, offset: 0x22E0A, size: 0x8, addend: 0x0, symName: __ZNKSt3__15dequeIcNS_9allocatorIcEEE17__annotate_deleteB8ue170006Ev, symObjAddr: 0x13088, symBinAddr: 0x100014E50, symSize: 0x160 }
  - { offsetInCU: 0x22E4D, offset: 0x22E4D, size: 0x8, addend: 0x0, symName: __ZNSt3__114__split_bufferIPcNS_9allocatorIS1_EEE5beginB8ue170006Ev, symObjAddr: 0x131E8, symBinAddr: 0x100014FB0, symSize: 0x64 }
  - { offsetInCU: 0x22E73, offset: 0x22E73, size: 0x8, addend: 0x0, symName: __ZNSt3__114__split_bufferIPcNS_9allocatorIS1_EEE3endB8ue170006Ev, symObjAddr: 0x1324C, symBinAddr: 0x100015014, symSize: 0x64 }
  - { offsetInCU: 0x22E99, offset: 0x22E99, size: 0x8, addend: 0x0, symName: __ZNSt3__116allocator_traitsINS_9allocatorIcEEE10deallocateB8ue170006ERS2_Pcm, symObjAddr: 0x132B0, symBinAddr: 0x100015078, symSize: 0x34 }
  - { offsetInCU: 0x22EDB, offset: 0x22EDB, size: 0x8, addend: 0x0, symName: __ZNSt3__15dequeIcNS_9allocatorIcEEE7__allocB8ue170006Ev, symObjAddr: 0x132E4, symBinAddr: 0x1000150AC, symSize: 0x28 }
  - { offsetInCU: 0x22F01, offset: 0x22F01, size: 0x8, addend: 0x0, symName: __ZNSt3__114__split_bufferIPcNS_9allocatorIS1_EEED1Ev, symObjAddr: 0x1330C, symBinAddr: 0x1000150D4, symSize: 0x2C }
  - { offsetInCU: 0x22F2D, offset: 0x22F2D, size: 0x8, addend: 0x0, symName: __ZNSt3__15dequeIcNS_9allocatorIcEEE5beginB8ue170006Ev, symObjAddr: 0x13338, symBinAddr: 0x100015100, symSize: 0x358 }
  - { offsetInCU: 0x22F64, offset: 0x22F64, size: 0x8, addend: 0x0, symName: __ZNSt3__15dequeIcNS_9allocatorIcEEE3endB8ue170006Ev, symObjAddr: 0x13690, symBinAddr: 0x100015458, symSize: 0x300 }
  - { offsetInCU: 0x22FAB, offset: 0x22FAB, size: 0x8, addend: 0x0, symName: __ZNSt3__116allocator_traitsINS_9allocatorIcEEE7destroyB8ue170006IcvEEvRS2_PT_, symObjAddr: 0x139C4, symBinAddr: 0x10001578C, symSize: 0x2C }
  - { offsetInCU: 0x22FE8, offset: 0x22FE8, size: 0x8, addend: 0x0, symName: __ZNKSt3__116__deque_iteratorIcPcRcPS1_lLl4096EEdeB8ue170006Ev, symObjAddr: 0x139F0, symBinAddr: 0x1000157B8, symSize: 0x64 }
  - { offsetInCU: 0x2300E, offset: 0x2300E, size: 0x8, addend: 0x0, symName: __ZNSt3__116__deque_iteratorIcPcRcPS1_lLl4096EEppB8ue170006Ev, symObjAddr: 0x13A54, symBinAddr: 0x10001581C, symSize: 0x1F0 }
  - { offsetInCU: 0x23034, offset: 0x23034, size: 0x8, addend: 0x0, symName: __ZNSt3__15dequeIcNS_9allocatorIcEEE6__sizeB8ue170006Ev, symObjAddr: 0x13C44, symBinAddr: 0x100015A0C, symSize: 0x28 }
  - { offsetInCU: 0x2305A, offset: 0x2305A, size: 0x8, addend: 0x0, symName: __ZNKSt3__114__split_bufferIPcNS_9allocatorIS1_EEE4sizeB8ue170006Ev, symObjAddr: 0x13C6C, symBinAddr: 0x100015A34, symSize: 0xB4 }
  - { offsetInCU: 0x23080, offset: 0x23080, size: 0x8, addend: 0x0, symName: __ZNSt3__114__split_bufferIPcNS_9allocatorIS1_EEE5frontB8ue170006Ev, symObjAddr: 0x13D20, symBinAddr: 0x100015AE8, symSize: 0x64 }
  - { offsetInCU: 0x230A6, offset: 0x230A6, size: 0x8, addend: 0x0, symName: __ZNSt3__114__split_bufferIPcNS_9allocatorIS1_EEE9pop_frontB8ue170006Ev, symObjAddr: 0x13D84, symBinAddr: 0x100015B4C, symSize: 0x6C }
  - { offsetInCU: 0x230CC, offset: 0x230CC, size: 0x8, addend: 0x0, symName: __ZNKSt3__15dequeIcNS_9allocatorIcEEE14__annotate_newB8ue170006Em, symObjAddr: 0x13DF0, symBinAddr: 0x100015BB8, symSize: 0x12C }
  - { offsetInCU: 0x23101, offset: 0x23101, size: 0x8, addend: 0x0, symName: __ZNKSt3__114__split_bufferIPcNS_9allocatorIS1_EEE5emptyB8ue170006Ev, symObjAddr: 0x13F1C, symBinAddr: 0x100015CE4, symSize: 0xB4 }
  - { offsetInCU: 0x23127, offset: 0x23127, size: 0x8, addend: 0x0, symName: __ZNSt3__116__deque_iteratorIcPcRcPS1_lLl4096EEC1B8ue170006ES3_S1_, symObjAddr: 0x13FD0, symBinAddr: 0x100015D98, symSize: 0x3C }
  - { offsetInCU: 0x2316F, offset: 0x2316F, size: 0x8, addend: 0x0, symName: __ZNSt3__116__deque_iteratorIcPcRcPS1_lLl4096EEC2B8ue170006ES3_S1_, symObjAddr: 0x1400C, symBinAddr: 0x100015DD4, symSize: 0xBC }
  - { offsetInCU: 0x231B7, offset: 0x231B7, size: 0x8, addend: 0x0, symName: __ZNKSt3__15dequeIcNS_9allocatorIcEEE4sizeB8ue170006Ev, symObjAddr: 0x140C8, symBinAddr: 0x100015E90, symSize: 0x6C }
  - { offsetInCU: 0x231DD, offset: 0x231DD, size: 0x8, addend: 0x0, symName: __ZNKSt3__15dequeIcNS_9allocatorIcEEE6__sizeB8ue170006Ev, symObjAddr: 0x14134, symBinAddr: 0x100015EFC, symSize: 0x28 }
  - { offsetInCU: 0x23203, offset: 0x23203, size: 0x8, addend: 0x0, symName: __ZNKSt3__117__compressed_pairImNS_9allocatorIcEEE5firstB8ue170006Ev, symObjAddr: 0x1415C, symBinAddr: 0x100015F24, symSize: 0x24 }
  - { offsetInCU: 0x23229, offset: 0x23229, size: 0x8, addend: 0x0, symName: __ZNSt3__19allocatorIcE7destroyB8ue170006EPc, symObjAddr: 0x14240, symBinAddr: 0x100016008, symSize: 0x14 }
  - { offsetInCU: 0x2325D, offset: 0x2325D, size: 0x8, addend: 0x0, symName: __ZNSt3__117__compressed_pairImNS_9allocatorIcEEE5firstB8ue170006Ev, symObjAddr: 0x14254, symBinAddr: 0x10001601C, symSize: 0x24 }
  - { offsetInCU: 0x23283, offset: 0x23283, size: 0x8, addend: 0x0, symName: __ZNSt3__114__split_bufferIPcNS_9allocatorIS1_EEE19__destruct_at_beginB8ue170006EPS1_, symObjAddr: 0x14278, symBinAddr: 0x100016040, symSize: 0x2C }
  - { offsetInCU: 0x232B7, offset: 0x232B7, size: 0x8, addend: 0x0, symName: __ZNSt3__114__split_bufferIPcNS_9allocatorIS1_EEE19__destruct_at_beginEPS1_NS_17integral_constantIbLb1EEE, symObjAddr: 0x142A4, symBinAddr: 0x10001606C, symSize: 0x74 }
  - { offsetInCU: 0x232F7, offset: 0x232F7, size: 0x8, addend: 0x0, symName: __ZNKSt3__15dequeIcNS_9allocatorIcEEE18__annotate_from_toB8ue170006EmmNS3_22__asan_annotation_typeENS3_23__asan_annotation_placeE, symObjAddr: 0x14318, symBinAddr: 0x1000160E0, symSize: 0x718 }
  - { offsetInCU: 0x234B3, offset: 0x234B3, size: 0x8, addend: 0x0, symName: __ZNKSt3__114__split_bufferIPcNS_9allocatorIS1_EEE5beginB8ue170006Ev, symObjAddr: 0x14A30, symBinAddr: 0x1000167F8, symSize: 0x64 }
  - { offsetInCU: 0x234D9, offset: 0x234D9, size: 0x8, addend: 0x0, symName: __ZNKSt3__15dequeIcNS_9allocatorIcEEE5emptyB8ue170006Ev, symObjAddr: 0x14A94, symBinAddr: 0x10001685C, symSize: 0x30 }
  - { offsetInCU: 0x234FF, offset: 0x234FF, size: 0x8, addend: 0x0, symName: __ZNKSt3__15dequeIcNS_9allocatorIcEEE44__annotate_double_ended_contiguous_containerB8ue170006EPKvS5_S5_S5_S5_S5_, symObjAddr: 0x14AD8, symBinAddr: 0x1000168A0, symSize: 0x28 }
  - { offsetInCU: 0x23567, offset: 0x23567, size: 0x8, addend: 0x0, symName: __ZNKSt3__15dequeIcNS_9allocatorIcEEE22__annotate_whole_blockB8ue170006EmNS3_22__asan_annotation_typeE, symObjAddr: 0x14B00, symBinAddr: 0x1000168C8, symSize: 0x124 }
  - { offsetInCU: 0x235D8, offset: 0x235D8, size: 0x8, addend: 0x0, symName: __ZNKSt3__15dequeIcNS_9allocatorIcEEE23__annotate_poison_blockB8ue170006EPKvS5_, symObjAddr: 0x14C24, symBinAddr: 0x1000169EC, symSize: 0x44 }
  - { offsetInCU: 0x2361C, offset: 0x2361C, size: 0x8, addend: 0x0, symName: __ZNSt3__19allocatorIcE10deallocateB8ue170006EPcm, symObjAddr: 0x14C68, symBinAddr: 0x100016A30, symSize: 0x7C }
  - { offsetInCU: 0x2365E, offset: 0x2365E, size: 0x8, addend: 0x0, symName: __ZNSt3__117__compressed_pairImNS_9allocatorIcEEE6secondB8ue170006Ev, symObjAddr: 0x14CE4, symBinAddr: 0x100016AAC, symSize: 0x24 }
  - { offsetInCU: 0x23684, offset: 0x23684, size: 0x8, addend: 0x0, symName: __ZNSt3__122__compressed_pair_elemINS_9allocatorIcEELi1ELb1EE5__getB8ue170006Ev, symObjAddr: 0x14D08, symBinAddr: 0x100016AD0, symSize: 0x14 }
  - { offsetInCU: 0x236AA, offset: 0x236AA, size: 0x8, addend: 0x0, symName: __ZNSt3__114__split_bufferIPcNS_9allocatorIS1_EEED2Ev, symObjAddr: 0x14D1C, symBinAddr: 0x100016AE4, symSize: 0xEC }
  - { offsetInCU: 0x236D6, offset: 0x236D6, size: 0x8, addend: 0x0, symName: __ZNSt3__114__split_bufferIPcNS_9allocatorIS1_EEE5clearB8ue170006Ev, symObjAddr: 0x14E08, symBinAddr: 0x100016BD0, symSize: 0x68 }
  - { offsetInCU: 0x236FC, offset: 0x236FC, size: 0x8, addend: 0x0, symName: __ZNSt3__116allocator_traitsINS_9allocatorIPcEEE10deallocateB8ue170006ERS3_PS2_m, symObjAddr: 0x14E70, symBinAddr: 0x100016C38, symSize: 0x34 }
  - { offsetInCU: 0x2373E, offset: 0x2373E, size: 0x8, addend: 0x0, symName: __ZNSt3__114__split_bufferIPcNS_9allocatorIS1_EEE7__allocB8ue170006Ev, symObjAddr: 0x14EA4, symBinAddr: 0x100016C6C, symSize: 0x28 }
  - { offsetInCU: 0x23764, offset: 0x23764, size: 0x8, addend: 0x0, symName: __ZNKSt3__114__split_bufferIPcNS_9allocatorIS1_EEE8capacityB8ue170006Ev, symObjAddr: 0x14ECC, symBinAddr: 0x100016C94, symSize: 0xBC }
  - { offsetInCU: 0x2378A, offset: 0x2378A, size: 0x8, addend: 0x0, symName: __ZNSt3__114__split_bufferIPcNS_9allocatorIS1_EEE17__destruct_at_endB8ue170006EPS1_, symObjAddr: 0x14F88, symBinAddr: 0x100016D50, symSize: 0x2C }
  - { offsetInCU: 0x237BE, offset: 0x237BE, size: 0x8, addend: 0x0, symName: __ZNSt3__114__split_bufferIPcNS_9allocatorIS1_EEE17__destruct_at_endB8ue170006EPS1_NS_17integral_constantIbLb0EEE, symObjAddr: 0x14FB4, symBinAddr: 0x100016D7C, symSize: 0x120 }
  - { offsetInCU: 0x237FE, offset: 0x237FE, size: 0x8, addend: 0x0, symName: __ZNSt3__116allocator_traitsINS_9allocatorIPcEEE7destroyB8ue170006IS2_vEEvRS3_PT_, symObjAddr: 0x150D4, symBinAddr: 0x100016E9C, symSize: 0x2C }
  - { offsetInCU: 0x2383B, offset: 0x2383B, size: 0x8, addend: 0x0, symName: __ZNSt3__19allocatorIPcE7destroyB8ue170006EPS1_, symObjAddr: 0x15114, symBinAddr: 0x100016EDC, symSize: 0x14 }
  - { offsetInCU: 0x2386F, offset: 0x2386F, size: 0x8, addend: 0x0, symName: __ZNSt3__19allocatorIPcE10deallocateB8ue170006EPS1_m, symObjAddr: 0x15128, symBinAddr: 0x100016EF0, symSize: 0x7C }
  - { offsetInCU: 0x238B1, offset: 0x238B1, size: 0x8, addend: 0x0, symName: __ZNSt3__117__compressed_pairIPPcNS_9allocatorIS1_EEE6secondB8ue170006Ev, symObjAddr: 0x151A4, symBinAddr: 0x100016F6C, symSize: 0x24 }
  - { offsetInCU: 0x238D7, offset: 0x238D7, size: 0x8, addend: 0x0, symName: __ZNSt3__122__compressed_pair_elemINS_9allocatorIPcEELi1ELb1EE5__getB8ue170006Ev, symObjAddr: 0x151C8, symBinAddr: 0x100016F90, symSize: 0x14 }
  - { offsetInCU: 0x238FD, offset: 0x238FD, size: 0x8, addend: 0x0, symName: __ZNKSt3__114__split_bufferIPcNS_9allocatorIS1_EEE9__end_capB8ue170006Ev, symObjAddr: 0x151DC, symBinAddr: 0x100016FA4, symSize: 0x28 }
  - { offsetInCU: 0x23923, offset: 0x23923, size: 0x8, addend: 0x0, symName: __ZNKSt3__117__compressed_pairIPPcNS_9allocatorIS1_EEE5firstB8ue170006Ev, symObjAddr: 0x15204, symBinAddr: 0x100016FCC, symSize: 0x24 }
  - { offsetInCU: 0x23949, offset: 0x23949, size: 0x8, addend: 0x0, symName: __ZNKSt3__122__compressed_pair_elemIPPcLi0ELb0EE5__getB8ue170006Ev, symObjAddr: 0x15228, symBinAddr: 0x100016FF0, symSize: 0x14 }
  - { offsetInCU: 0x2396F, offset: 0x2396F, size: 0x8, addend: 0x0, symName: __ZNSt3__13setIP5StateNS_4lessIS2_EENS_9allocatorIS2_EEE5eraseB8ue170006ERKS2_, symObjAddr: 0x1523C, symBinAddr: 0x100017004, symSize: 0x2C }
  - { offsetInCU: 0x239A4, offset: 0x239A4, size: 0x8, addend: 0x0, symName: __ZNSt3__16__treeIP5StateNS_4lessIS2_EENS_9allocatorIS2_EEE14__erase_uniqueIS2_EEmRKT_, symObjAddr: 0x15268, symBinAddr: 0x100017030, symSize: 0x434 }
  - { offsetInCU: 0x239F9, offset: 0x239F9, size: 0x8, addend: 0x0, symName: __ZNSt3__16__treeIP5StateNS_4lessIS2_EENS_9allocatorIS2_EEE4findIS2_EENS_15__tree_iteratorIS2_PNS_11__tree_nodeIS2_PvEElEERKT_, symObjAddr: 0x1569C, symBinAddr: 0x100017464, symSize: 0x3FC }
  - { offsetInCU: 0x23A4E, offset: 0x23A4E, size: 0x8, addend: 0x0, symName: __ZNSt3__16__treeIP5StateNS_4lessIS2_EENS_9allocatorIS2_EEE5eraseENS_21__tree_const_iteratorIS2_PNS_11__tree_nodeIS2_PvEElEE, symObjAddr: 0x15B50, symBinAddr: 0x100017918, symSize: 0x310 }
  - { offsetInCU: 0x23ABD, offset: 0x23ABD, size: 0x8, addend: 0x0, symName: __ZNSt3__16__treeIP5StateNS_4lessIS2_EENS_9allocatorIS2_EEE13__lower_boundIS2_EENS_15__tree_iteratorIS2_PNS_11__tree_nodeIS2_PvEElEERKT_SD_PNS_15__tree_end_nodeIPNS_16__tree_node_baseISB_EEEE, symObjAddr: 0x15E60, symBinAddr: 0x100017C28, symSize: 0x2E0 }
  - { offsetInCU: 0x23B1F, offset: 0x23B1F, size: 0x8, addend: 0x0, symName: __ZNKSt3__115__tree_iteratorIP5StatePNS_11__tree_nodeIS2_PvEElEdeB8ue170006Ev, symObjAddr: 0x16174, symBinAddr: 0x100017F3C, symSize: 0x28 }
  - { offsetInCU: 0x23B45, offset: 0x23B45, size: 0x8, addend: 0x0, symName: __ZNKSt3__115__tree_iteratorIP5StatePNS_11__tree_nodeIS2_PvEElE8__get_npB8ue170006Ev, symObjAddr: 0x1619C, symBinAddr: 0x100017F64, symSize: 0x60 }
  - { offsetInCU: 0x23B6B, offset: 0x23B6B, size: 0x8, addend: 0x0, symName: __ZNSt3__16__treeIP5StateNS_4lessIS2_EENS_9allocatorIS2_EEE21__remove_node_pointerEPNS_11__tree_nodeIS2_PvEE, symObjAddr: 0x161FC, symBinAddr: 0x100017FC4, symSize: 0x39C }
  - { offsetInCU: 0x23BB7, offset: 0x23BB7, size: 0x8, addend: 0x0, symName: __ZNSt3__115__tree_iteratorIP5StatePNS_11__tree_nodeIS2_PvEElEppB8ue170006Ev, symObjAddr: 0x16598, symBinAddr: 0x100018360, symSize: 0xA8 }
  - { offsetInCU: 0x23BDD, offset: 0x23BDD, size: 0x8, addend: 0x0, symName: __ZN5RegexC2ENSt3__112basic_stringIcNS0_11char_traitsIcEENS0_9allocatorIcEEEE, symObjAddr: 0x18610, symBinAddr: 0x10001A3D8, symSize: 0x3B8 }
  - { offsetInCU: 0x23C19, offset: 0x23C19, size: 0x8, addend: 0x0, symName: __ZNSt3__13setIiNS_4lessIiEENS_9allocatorIiEEEC1B8ue170006Ev, symObjAddr: 0x194DC, symBinAddr: 0x10001B2A4, symSize: 0x2C }
  - { offsetInCU: 0x23C43, offset: 0x23C43, size: 0x8, addend: 0x0, symName: __ZNSt3__13setIiNS_4lessIiEENS_9allocatorIiEEED1B8ue170006Ev, symObjAddr: 0x19508, symBinAddr: 0x10001B2D0, symSize: 0x2C }
  - { offsetInCU: 0x23C6D, offset: 0x23C6D, size: 0x8, addend: 0x0, symName: __ZNSt3__13setIiNS_4lessIiEENS_9allocatorIiEEE5beginB8ue170006Ev, symObjAddr: 0x19B88, symBinAddr: 0x10001B950, symSize: 0x2B4 }
  - { offsetInCU: 0x23C94, offset: 0x23C94, size: 0x8, addend: 0x0, symName: __ZNSt3__13setIiNS_4lessIiEENS_9allocatorIiEEE3endB8ue170006Ev, symObjAddr: 0x19E3C, symBinAddr: 0x10001BC04, symSize: 0x2B4 }
  - { offsetInCU: 0x23CBB, offset: 0x23CBB, size: 0x8, addend: 0x0, symName: __ZNSt3__13setIiNS_4lessIiEENS_9allocatorIiEEE6insertB8ue170006ERKi, symObjAddr: 0x1A0F0, symBinAddr: 0x10001BEB8, symSize: 0x2A8 }
  - { offsetInCU: 0x23CF2, offset: 0x23CF2, size: 0x8, addend: 0x0, symName: __ZNSt3__13setIiNS_4lessIiEENS_9allocatorIiEEE5eraseB8ue170006ERKi, symObjAddr: 0x1A398, symBinAddr: 0x10001C160, symSize: 0x2C }
  - { offsetInCU: 0x23D27, offset: 0x23D27, size: 0x8, addend: 0x0, symName: __ZNSt3__13setIiNS_4lessIiEENS_9allocatorIiEEEC2B8ue170006Ev, symObjAddr: 0x1A3C4, symBinAddr: 0x10001C18C, symSize: 0x1D8 }
  - { offsetInCU: 0x23D52, offset: 0x23D52, size: 0x8, addend: 0x0, symName: __ZNSt3__16__treeIiNS_4lessIiEENS_9allocatorIiEEEC1ERKS2_, symObjAddr: 0x1A59C, symBinAddr: 0x10001C364, symSize: 0x34 }
  - { offsetInCU: 0x23D8D, offset: 0x23D8D, size: 0x8, addend: 0x0, symName: __ZNSt3__16__treeIiNS_4lessIiEENS_9allocatorIiEEEC2ERKS2_, symObjAddr: 0x1A5D0, symBinAddr: 0x10001C398, symSize: 0x2B4 }
  - { offsetInCU: 0x23DCA, offset: 0x23DCA, size: 0x8, addend: 0x0, symName: __ZNSt3__117__compressed_pairINS_15__tree_end_nodeIPNS_16__tree_node_baseIPvEEEENS_9allocatorINS_11__tree_nodeIiS3_EEEEEC1B8ue170006ILb1EvEEv, symObjAddr: 0x1A884, symBinAddr: 0x10001C64C, symSize: 0x2C }
  - { offsetInCU: 0x23E05, offset: 0x23E05, size: 0x8, addend: 0x0, symName: __ZNSt3__117__compressed_pairImNS_4lessIiEEEC1B8ue170006IiRKS2_EEOT_OT0_, symObjAddr: 0x1A8B0, symBinAddr: 0x10001C678, symSize: 0x3C }
  - { offsetInCU: 0x23E5D, offset: 0x23E5D, size: 0x8, addend: 0x0, symName: __ZNSt3__16__treeIiNS_4lessIiEENS_9allocatorIiEEE10__end_nodeB8ue170006Ev, symObjAddr: 0x1A8EC, symBinAddr: 0x10001C6B4, symSize: 0x2C }
  - { offsetInCU: 0x23E83, offset: 0x23E83, size: 0x8, addend: 0x0, symName: __ZNSt3__16__treeIiNS_4lessIiEENS_9allocatorIiEEE12__begin_nodeB8ue170006Ev, symObjAddr: 0x1A918, symBinAddr: 0x10001C6E0, symSize: 0x14 }
  - { offsetInCU: 0x23EA9, offset: 0x23EA9, size: 0x8, addend: 0x0, symName: __ZNSt3__117__compressed_pairINS_15__tree_end_nodeIPNS_16__tree_node_baseIPvEEEENS_9allocatorINS_11__tree_nodeIiS3_EEEEEC2B8ue170006ILb1EvEEv, symObjAddr: 0x1A92C, symBinAddr: 0x10001C6F4, symSize: 0x34 }
  - { offsetInCU: 0x23EDE, offset: 0x23EDE, size: 0x8, addend: 0x0, symName: __ZNSt3__122__compressed_pair_elemINS_15__tree_end_nodeIPNS_16__tree_node_baseIPvEEEELi0ELb0EEC2B8ue170006ENS_16__value_init_tagE, symObjAddr: 0x1A960, symBinAddr: 0x10001C728, symSize: 0x2C }
  - { offsetInCU: 0x23F12, offset: 0x23F12, size: 0x8, addend: 0x0, symName: __ZNSt3__122__compressed_pair_elemINS_9allocatorINS_11__tree_nodeIiPvEEEELi1ELb1EEC2B8ue170006ENS_16__value_init_tagE, symObjAddr: 0x1A98C, symBinAddr: 0x10001C754, symSize: 0x2C }
  - { offsetInCU: 0x23F46, offset: 0x23F46, size: 0x8, addend: 0x0, symName: __ZNSt3__115__tree_end_nodeIPNS_16__tree_node_baseIPvEEEC1B8ue170006Ev, symObjAddr: 0x1A9B8, symBinAddr: 0x10001C780, symSize: 0x2C }
  - { offsetInCU: 0x23F70, offset: 0x23F70, size: 0x8, addend: 0x0, symName: __ZNSt3__115__tree_end_nodeIPNS_16__tree_node_baseIPvEEEC2B8ue170006Ev, symObjAddr: 0x1A9E4, symBinAddr: 0x10001C7AC, symSize: 0x60 }
  - { offsetInCU: 0x23F9A, offset: 0x23F9A, size: 0x8, addend: 0x0, symName: __ZNSt3__19allocatorINS_11__tree_nodeIiPvEEEC2B8ue170006Ev, symObjAddr: 0x1AA44, symBinAddr: 0x10001C80C, symSize: 0x2C }
  - { offsetInCU: 0x23FC4, offset: 0x23FC4, size: 0x8, addend: 0x0, symName: __ZNSt3__116__non_trivial_ifILb1ENS_9allocatorINS_11__tree_nodeIiPvEEEEEC2B8ue170006Ev, symObjAddr: 0x1AA70, symBinAddr: 0x10001C838, symSize: 0x14 }
  - { offsetInCU: 0x23FEE, offset: 0x23FEE, size: 0x8, addend: 0x0, symName: __ZNSt3__117__compressed_pairImNS_4lessIiEEEC2B8ue170006IiRKS2_EEOT_OT0_, symObjAddr: 0x1AA84, symBinAddr: 0x10001C84C, symSize: 0x44 }
  - { offsetInCU: 0x24046, offset: 0x24046, size: 0x8, addend: 0x0, symName: __ZNSt3__122__compressed_pair_elemImLi0ELb0EEC2B8ue170006IivEEOT_, symObjAddr: 0x1AAC8, symBinAddr: 0x10001C890, symSize: 0xD8 }
  - { offsetInCU: 0x24088, offset: 0x24088, size: 0x8, addend: 0x0, symName: __ZNSt3__122__compressed_pair_elemINS_4lessIiEELi1ELb1EEC2B8ue170006IRKS2_vEEOT_, symObjAddr: 0x1ABA0, symBinAddr: 0x10001C968, symSize: 0x18 }
  - { offsetInCU: 0x240CA, offset: 0x240CA, size: 0x8, addend: 0x0, symName: __ZNSt3__117__compressed_pairINS_15__tree_end_nodeIPNS_16__tree_node_baseIPvEEEENS_9allocatorINS_11__tree_nodeIiS3_EEEEE5firstB8ue170006Ev, symObjAddr: 0x1ABB8, symBinAddr: 0x10001C980, symSize: 0x24 }
  - { offsetInCU: 0x240F0, offset: 0x240F0, size: 0x8, addend: 0x0, symName: __ZNSt3__13setIiNS_4lessIiEENS_9allocatorIiEEED2B8ue170006Ev, symObjAddr: 0x1ABDC, symBinAddr: 0x10001C9A4, symSize: 0x2C }
  - { offsetInCU: 0x2411A, offset: 0x2411A, size: 0x8, addend: 0x0, symName: __ZNSt3__16__treeIiNS_4lessIiEENS_9allocatorIiEEED1Ev, symObjAddr: 0x1AC08, symBinAddr: 0x10001C9D0, symSize: 0x2C }
  - { offsetInCU: 0x24146, offset: 0x24146, size: 0x8, addend: 0x0, symName: __ZNSt3__16__treeIiNS_4lessIiEENS_9allocatorIiEEED2Ev, symObjAddr: 0x1AC34, symBinAddr: 0x10001C9FC, symSize: 0x38 }
  - { offsetInCU: 0x24172, offset: 0x24172, size: 0x8, addend: 0x0, symName: __ZNSt3__16__treeIiNS_4lessIiEENS_9allocatorIiEEE7destroyEPNS_11__tree_nodeIiPvEE, symObjAddr: 0x1AC6C, symBinAddr: 0x10001CA34, symSize: 0x148 }
  - { offsetInCU: 0x241C6, offset: 0x241C6, size: 0x8, addend: 0x0, symName: __ZNKSt3__16__treeIiNS_4lessIiEENS_9allocatorIiEEE6__rootB8ue170006Ev, symObjAddr: 0x1ADB4, symBinAddr: 0x10001CB7C, symSize: 0x6C }
  - { offsetInCU: 0x241EC, offset: 0x241EC, size: 0x8, addend: 0x0, symName: __ZNSt3__16__treeIiNS_4lessIiEENS_9allocatorIiEEE12__node_allocB8ue170006Ev, symObjAddr: 0x1AE20, symBinAddr: 0x10001CBE8, symSize: 0x28 }
  - { offsetInCU: 0x24212, offset: 0x24212, size: 0x8, addend: 0x0, symName: __ZNSt3__116allocator_traitsINS_9allocatorINS_11__tree_nodeIiPvEEEEE7destroyB8ue170006IivvEEvRS5_PT_, symObjAddr: 0x1AE48, symBinAddr: 0x10001CC10, symSize: 0x14 }
  - { offsetInCU: 0x2424C, offset: 0x2424C, size: 0x8, addend: 0x0, symName: __ZNSt3__122__tree_key_value_typesIiE9__get_ptrB8ue170006ERi, symObjAddr: 0x1AE5C, symBinAddr: 0x10001CC24, symSize: 0x14 }
  - { offsetInCU: 0x24270, offset: 0x24270, size: 0x8, addend: 0x0, symName: __ZNSt3__116allocator_traitsINS_9allocatorINS_11__tree_nodeIiPvEEEEE10deallocateB8ue170006ERS5_PS4_m, symObjAddr: 0x1AE70, symBinAddr: 0x10001CC38, symSize: 0x34 }
  - { offsetInCU: 0x242B2, offset: 0x242B2, size: 0x8, addend: 0x0, symName: __ZNSt3__117__compressed_pairINS_15__tree_end_nodeIPNS_16__tree_node_baseIPvEEEENS_9allocatorINS_11__tree_nodeIiS3_EEEEE6secondB8ue170006Ev, symObjAddr: 0x1AEA4, symBinAddr: 0x10001CC6C, symSize: 0x24 }
  - { offsetInCU: 0x242D8, offset: 0x242D8, size: 0x8, addend: 0x0, symName: __ZNSt3__122__compressed_pair_elemINS_9allocatorINS_11__tree_nodeIiPvEEEELi1ELb1EE5__getB8ue170006Ev, symObjAddr: 0x1AEC8, symBinAddr: 0x10001CC90, symSize: 0x14 }
  - { offsetInCU: 0x242FE, offset: 0x242FE, size: 0x8, addend: 0x0, symName: __ZNSt3__19allocatorINS_11__tree_nodeIiPvEEE10deallocateB8ue170006EPS3_m, symObjAddr: 0x1AEDC, symBinAddr: 0x10001CCA4, symSize: 0x7C }
  - { offsetInCU: 0x24340, offset: 0x24340, size: 0x8, addend: 0x0, symName: __ZNKSt3__16__treeIiNS_4lessIiEENS_9allocatorIiEEE10__end_nodeB8ue170006Ev, symObjAddr: 0x1AF58, symBinAddr: 0x10001CD20, symSize: 0x2C }
  - { offsetInCU: 0x24366, offset: 0x24366, size: 0x8, addend: 0x0, symName: __ZNKSt3__117__compressed_pairINS_15__tree_end_nodeIPNS_16__tree_node_baseIPvEEEENS_9allocatorINS_11__tree_nodeIiS3_EEEEE5firstB8ue170006Ev, symObjAddr: 0x1AF84, symBinAddr: 0x10001CD4C, symSize: 0x24 }
  - { offsetInCU: 0x2438C, offset: 0x2438C, size: 0x8, addend: 0x0, symName: __ZNSt3__118__unwrap_iter_implINS_21__tree_const_iteratorIiPNS_11__tree_nodeIiPvEElEELb0EE8__rewrapB8ue170006ES6_S6_, symObjAddr: 0x1BB8C, symBinAddr: 0x10001D954, symSize: 0x2D4 }
  - { offsetInCU: 0x243C1, offset: 0x243C1, size: 0x8, addend: 0x0, symName: __ZNKSt3__121__tree_const_iteratorIiPNS_11__tree_nodeIiPvEElEdeB8ue170006Ev, symObjAddr: 0x1BE8C, symBinAddr: 0x10001DC54, symSize: 0x28 }
  - { offsetInCU: 0x243E7, offset: 0x243E7, size: 0x8, addend: 0x0, symName: __ZNSt3__121__tree_const_iteratorIiPNS_11__tree_nodeIiPvEElEppB8ue170006Ev, symObjAddr: 0x1BEB4, symBinAddr: 0x10001DC7C, symSize: 0xA8 }
  - { offsetInCU: 0x24417, offset: 0x24417, size: 0x8, addend: 0x0, symName: __ZNKSt3__110__identityclB8ue170006IRKiEEOT_S5_, symObjAddr: 0x1BF5C, symBinAddr: 0x10001DD24, symSize: 0x18 }
  - { offsetInCU: 0x24454, offset: 0x24454, size: 0x8, addend: 0x0, symName: __ZNKSt3__121__tree_const_iteratorIiPNS_11__tree_nodeIiPvEElE8__get_npB8ue170006Ev, symObjAddr: 0x1BF74, symBinAddr: 0x10001DD3C, symSize: 0x60 }
  - { offsetInCU: 0x2447A, offset: 0x2447A, size: 0x8, addend: 0x0, symName: __ZNSt3__118__unwrap_iter_implINS_21__tree_const_iteratorIiPNS_11__tree_nodeIiPvEElEELb0EE8__unwrapB8ue170006ES6_, symObjAddr: 0x1BFD4, symBinAddr: 0x10001DD9C, symSize: 0x270 }
  - { offsetInCU: 0x244A1, offset: 0x244A1, size: 0x8, addend: 0x0, symName: __ZNSt3__16__treeIiNS_4lessIiEENS_9allocatorIiEEE5beginB8ue170006Ev, symObjAddr: 0x1C244, symBinAddr: 0x10001E00C, symSize: 0x238 }
  - { offsetInCU: 0x244C8, offset: 0x244C8, size: 0x8, addend: 0x0, symName: __ZNSt3__121__tree_const_iteratorIiPNS_11__tree_nodeIiPvEElEC1B8ue170006ENS_15__tree_iteratorIiS4_lEE, symObjAddr: 0x1C47C, symBinAddr: 0x10001E244, symSize: 0x238 }
  - { offsetInCU: 0x24506, offset: 0x24506, size: 0x8, addend: 0x0, symName: __ZNSt3__115__tree_iteratorIiPNS_11__tree_nodeIiPvEElEC1B8ue170006EPNS_15__tree_end_nodeIPNS_16__tree_node_baseIS2_EEEE, symObjAddr: 0x1C6B4, symBinAddr: 0x10001E47C, symSize: 0x34 }
  - { offsetInCU: 0x2453F, offset: 0x2453F, size: 0x8, addend: 0x0, symName: __ZNSt3__115__tree_iteratorIiPNS_11__tree_nodeIiPvEElEC2B8ue170006EPNS_15__tree_end_nodeIPNS_16__tree_node_baseIS2_EEEE, symObjAddr: 0x1C6E8, symBinAddr: 0x10001E4B0, symSize: 0x70 }
  - { offsetInCU: 0x24578, offset: 0x24578, size: 0x8, addend: 0x0, symName: __ZNSt3__121__tree_const_iteratorIiPNS_11__tree_nodeIiPvEElEC2B8ue170006ENS_15__tree_iteratorIiS4_lEE, symObjAddr: 0x1C758, symBinAddr: 0x10001E520, symSize: 0x270 }
  - { offsetInCU: 0x245B6, offset: 0x245B6, size: 0x8, addend: 0x0, symName: __ZNSt3__16__treeIiNS_4lessIiEENS_9allocatorIiEEE3endB8ue170006Ev, symObjAddr: 0x1C9C8, symBinAddr: 0x10001E790, symSize: 0x204 }
  - { offsetInCU: 0x245DD, offset: 0x245DD, size: 0x8, addend: 0x0, symName: __ZNSt3__16__treeIiNS_4lessIiEENS_9allocatorIiEEE15__insert_uniqueB8ue170006ERKi, symObjAddr: 0x1CBCC, symBinAddr: 0x10001E994, symSize: 0x238 }
  - { offsetInCU: 0x24614, offset: 0x24614, size: 0x8, addend: 0x0, symName: __ZNSt3__14pairINS_21__tree_const_iteratorIiPNS_11__tree_nodeIiPvEElEEbEC1B8ue170006INS_15__tree_iteratorIiS5_lEEbEERKNS0_IT_T0_EE, symObjAddr: 0x1CE04, symBinAddr: 0x10001EBCC, symSize: 0x34 }
  - { offsetInCU: 0x2465E, offset: 0x2465E, size: 0x8, addend: 0x0, symName: __ZNSt3__16__treeIiNS_4lessIiEENS_9allocatorIiEEE25__emplace_unique_key_argsIiJRKiEEENS_4pairINS_15__tree_iteratorIiPNS_11__tree_nodeIiPvEElEEbEERKT_DpOT0_, symObjAddr: 0x1CE38, symBinAddr: 0x10001EC00, symSize: 0x510 }
  - { offsetInCU: 0x2471A, offset: 0x2471A, size: 0x8, addend: 0x0, symName: __ZNSt3__122__tree_key_value_typesIiE9__get_keyB8ue170006ERKi, symObjAddr: 0x1D348, symBinAddr: 0x10001F110, symSize: 0x14 }
  - { offsetInCU: 0x2473E, offset: 0x2473E, size: 0x8, addend: 0x0, symName: __ZNSt3__16__treeIiNS_4lessIiEENS_9allocatorIiEEE12__find_equalIiEERPNS_16__tree_node_baseIPvEERPNS_15__tree_end_nodeISA_EERKT_, symObjAddr: 0x1D35C, symBinAddr: 0x10001F124, symSize: 0x3F0 }
  - { offsetInCU: 0x247AB, offset: 0x247AB, size: 0x8, addend: 0x0, symName: __ZNSt3__16__treeIiNS_4lessIiEENS_9allocatorIiEEE16__construct_nodeIJRKiEEENS_10unique_ptrINS_11__tree_nodeIiPvEENS_22__tree_node_destructorINS3_ISC_EEEEEEDpOT_, symObjAddr: 0x1D74C, symBinAddr: 0x10001F514, symSize: 0x390 }
  - { offsetInCU: 0x24810, offset: 0x24810, size: 0x8, addend: 0x0, symName: __ZNSt3__16__treeIiNS_4lessIiEENS_9allocatorIiEEE16__insert_node_atEPNS_15__tree_end_nodeIPNS_16__tree_node_baseIPvEEEERSA_SA_, symObjAddr: 0x1DADC, symBinAddr: 0x10001F8A4, symSize: 0x370 }
  - { offsetInCU: 0x24865, offset: 0x24865, size: 0x8, addend: 0x0, symName: __ZNKSt3__110unique_ptrINS_11__tree_nodeIiPvEENS_22__tree_node_destructorINS_9allocatorIS3_EEEEE3getB8ue170006Ev, symObjAddr: 0x1DE4C, symBinAddr: 0x10001FC14, symSize: 0x6C }
  - { offsetInCU: 0x2488B, offset: 0x2488B, size: 0x8, addend: 0x0, symName: __ZNSt3__110unique_ptrINS_11__tree_nodeIiPvEENS_22__tree_node_destructorINS_9allocatorIS3_EEEEE7releaseB8ue170006Ev, symObjAddr: 0x1DEB8, symBinAddr: 0x10001FC80, symSize: 0xB8 }
  - { offsetInCU: 0x248C0, offset: 0x248C0, size: 0x8, addend: 0x0, symName: __ZNSt3__110unique_ptrINS_11__tree_nodeIiPvEENS_22__tree_node_destructorINS_9allocatorIS3_EEEEED1B8ue170006Ev, symObjAddr: 0x1DF70, symBinAddr: 0x10001FD38, symSize: 0x2C }
  - { offsetInCU: 0x248EA, offset: 0x248EA, size: 0x8, addend: 0x0, symName: __ZNSt3__115__tree_iteratorIiPNS_11__tree_nodeIiPvEElEC1B8ue170006ES4_, symObjAddr: 0x1DF9C, symBinAddr: 0x10001FD64, symSize: 0x34 }
  - { offsetInCU: 0x24923, offset: 0x24923, size: 0x8, addend: 0x0, symName: __ZNSt3__14pairINS_15__tree_iteratorIiPNS_11__tree_nodeIiPvEElEEbEC1B8ue170006ERKS6_RKb, symObjAddr: 0x1DFD0, symBinAddr: 0x10001FD98, symSize: 0x3C }
  - { offsetInCU: 0x24969, offset: 0x24969, size: 0x8, addend: 0x0, symName: __ZNKSt3__16__treeIiNS_4lessIiEENS_9allocatorIiEEE10__root_ptrB8ue170006Ev, symObjAddr: 0x1E00C, symBinAddr: 0x10001FDD4, symSize: 0x24 }
  - { offsetInCU: 0x2498F, offset: 0x2498F, size: 0x8, addend: 0x0, symName: __ZNSt3__16__treeIiNS_4lessIiEENS_9allocatorIiEEE10value_compB8ue170006Ev, symObjAddr: 0x1E030, symBinAddr: 0x10001FDF8, symSize: 0x28 }
  - { offsetInCU: 0x249B5, offset: 0x249B5, size: 0x8, addend: 0x0, symName: __ZNKSt3__14lessIiEclB8ue170006ERKiS3_, symObjAddr: 0x1E058, symBinAddr: 0x10001FE20, symSize: 0x10C }
  - { offsetInCU: 0x249F9, offset: 0x249F9, size: 0x8, addend: 0x0, symName: __ZNSt3__117__compressed_pairImNS_4lessIiEEE6secondB8ue170006Ev, symObjAddr: 0x1E164, symBinAddr: 0x10001FF2C, symSize: 0x24 }
  - { offsetInCU: 0x24A1F, offset: 0x24A1F, size: 0x8, addend: 0x0, symName: __ZNSt3__122__compressed_pair_elemINS_4lessIiEELi1ELb1EE5__getB8ue170006Ev, symObjAddr: 0x1E188, symBinAddr: 0x10001FF50, symSize: 0x14 }
  - { offsetInCU: 0x24A45, offset: 0x24A45, size: 0x8, addend: 0x0, symName: __ZNSt3__116allocator_traitsINS_9allocatorINS_11__tree_nodeIiPvEEEEE8allocateB8ue170006ERS5_m, symObjAddr: 0x1E19C, symBinAddr: 0x10001FF64, symSize: 0x2C }
  - { offsetInCU: 0x24A78, offset: 0x24A78, size: 0x8, addend: 0x0, symName: __ZNSt3__122__tree_node_destructorINS_9allocatorINS_11__tree_nodeIiPvEEEEEC1B8ue170006ERS5_b, symObjAddr: 0x1E1C8, symBinAddr: 0x10001FF90, symSize: 0x48 }
  - { offsetInCU: 0x24AC6, offset: 0x24AC6, size: 0x8, addend: 0x0, symName: __ZNSt3__110unique_ptrINS_11__tree_nodeIiPvEENS_22__tree_node_destructorINS_9allocatorIS3_EEEEEC1B8ue170006ILb1EvEEPS3_NS_16__dependent_typeINS_27__unique_ptr_deleter_sfinaeIS7_EEXT_EE20__good_rval_ref_typeE, symObjAddr: 0x1E210, symBinAddr: 0x10001FFD8, symSize: 0x3C }
  - { offsetInCU: 0x24B17, offset: 0x24B17, size: 0x8, addend: 0x0, symName: __ZNSt3__116allocator_traitsINS_9allocatorINS_11__tree_nodeIiPvEEEEE9constructB8ue170006IiJRKiEvEEvRS5_PT_DpOT0_, symObjAddr: 0x1E24C, symBinAddr: 0x100020014, symSize: 0x34 }
  - { offsetInCU: 0x24B6E, offset: 0x24B6E, size: 0x8, addend: 0x0, symName: __ZNKSt3__110unique_ptrINS_11__tree_nodeIiPvEENS_22__tree_node_destructorINS_9allocatorIS3_EEEEEptB8ue170006Ev, symObjAddr: 0x1E280, symBinAddr: 0x100020048, symSize: 0x6C }
  - { offsetInCU: 0x24B94, offset: 0x24B94, size: 0x8, addend: 0x0, symName: __ZNSt3__110unique_ptrINS_11__tree_nodeIiPvEENS_22__tree_node_destructorINS_9allocatorIS3_EEEEE11get_deleterB8ue170006Ev, symObjAddr: 0x1E2EC, symBinAddr: 0x1000200B4, symSize: 0x24 }
  - { offsetInCU: 0x24BBA, offset: 0x24BBA, size: 0x8, addend: 0x0, symName: __ZNSt3__19allocatorINS_11__tree_nodeIiPvEEE8allocateB8ue170006Em, symObjAddr: 0x1E310, symBinAddr: 0x1000200D8, symSize: 0x88 }
  - { offsetInCU: 0x24BF8, offset: 0x24BF8, size: 0x8, addend: 0x0, symName: __ZNSt3__116allocator_traitsINS_9allocatorINS_11__tree_nodeIiPvEEEEE8max_sizeB8ue170006IS5_vEEmRKS5_, symObjAddr: 0x1E398, symBinAddr: 0x100020160, symSize: 0x24 }
  - { offsetInCU: 0x24C26, offset: 0x24C26, size: 0x8, addend: 0x0, symName: __ZNKSt3__19allocatorINS_11__tree_nodeIiPvEEE8max_sizeB8ue170006Ev, symObjAddr: 0x1E3BC, symBinAddr: 0x100020184, symSize: 0x14 }
  - { offsetInCU: 0x24C4C, offset: 0x24C4C, size: 0x8, addend: 0x0, symName: __ZNSt3__122__tree_node_destructorINS_9allocatorINS_11__tree_nodeIiPvEEEEEC2B8ue170006ERS5_b, symObjAddr: 0x1E3D0, symBinAddr: 0x100020198, symSize: 0xF0 }
  - { offsetInCU: 0x24C94, offset: 0x24C94, size: 0x8, addend: 0x0, symName: __ZNSt3__110unique_ptrINS_11__tree_nodeIiPvEENS_22__tree_node_destructorINS_9allocatorIS3_EEEEEC2B8ue170006ILb1EvEEPS3_NS_16__dependent_typeINS_27__unique_ptr_deleter_sfinaeIS7_EEXT_EE20__good_rval_ref_typeE, symObjAddr: 0x1E4C0, symBinAddr: 0x100020288, symSize: 0x230 }
  - { offsetInCU: 0x24CEB, offset: 0x24CEB, size: 0x8, addend: 0x0, symName: __ZNSt3__117__compressed_pairIPNS_11__tree_nodeIiPvEENS_22__tree_node_destructorINS_9allocatorIS3_EEEEEC1B8ue170006IRS4_S8_EEOT_OT0_, symObjAddr: 0x1E6F0, symBinAddr: 0x1000204B8, symSize: 0x3C }
  - { offsetInCU: 0x24D43, offset: 0x24D43, size: 0x8, addend: 0x0, symName: __ZNSt3__117__compressed_pairIPNS_11__tree_nodeIiPvEENS_22__tree_node_destructorINS_9allocatorIS3_EEEEEC2B8ue170006IRS4_S8_EEOT_OT0_, symObjAddr: 0x1E72C, symBinAddr: 0x1000204F4, symSize: 0x48 }
  - { offsetInCU: 0x24D9B, offset: 0x24D9B, size: 0x8, addend: 0x0, symName: __ZNSt3__122__compressed_pair_elemIPNS_11__tree_nodeIiPvEELi0ELb0EEC2B8ue170006IRS4_vEEOT_, symObjAddr: 0x1E774, symBinAddr: 0x10002053C, symSize: 0xB0 }
  - { offsetInCU: 0x24DDD, offset: 0x24DDD, size: 0x8, addend: 0x0, symName: __ZNSt3__122__compressed_pair_elemINS_22__tree_node_destructorINS_9allocatorINS_11__tree_nodeIiPvEEEEEELi1ELb0EEC2B8ue170006IS7_vEEOT_, symObjAddr: 0x1E824, symBinAddr: 0x1000205EC, symSize: 0x38 }
  - { offsetInCU: 0x24E1F, offset: 0x24E1F, size: 0x8, addend: 0x0, symName: __ZNSt3__19allocatorINS_11__tree_nodeIiPvEEE9constructB8ue170006IiJRKiEEEvPT_DpOT0_, symObjAddr: 0x1E85C, symBinAddr: 0x100020624, symSize: 0x104 }
  - { offsetInCU: 0x24E75, offset: 0x24E75, size: 0x8, addend: 0x0, symName: __ZNKSt3__117__compressed_pairIPNS_11__tree_nodeIiPvEENS_22__tree_node_destructorINS_9allocatorIS3_EEEEE5firstB8ue170006Ev, symObjAddr: 0x1E960, symBinAddr: 0x100020728, symSize: 0x24 }
  - { offsetInCU: 0x24E9B, offset: 0x24E9B, size: 0x8, addend: 0x0, symName: __ZNKSt3__122__compressed_pair_elemIPNS_11__tree_nodeIiPvEELi0ELb0EE5__getB8ue170006Ev, symObjAddr: 0x1E984, symBinAddr: 0x10002074C, symSize: 0x14 }
  - { offsetInCU: 0x24EC1, offset: 0x24EC1, size: 0x8, addend: 0x0, symName: __ZNSt3__117__compressed_pairIPNS_11__tree_nodeIiPvEENS_22__tree_node_destructorINS_9allocatorIS3_EEEEE6secondB8ue170006Ev, symObjAddr: 0x1E998, symBinAddr: 0x100020760, symSize: 0x28 }
  - { offsetInCU: 0x24EE7, offset: 0x24EE7, size: 0x8, addend: 0x0, symName: __ZNSt3__122__compressed_pair_elemINS_22__tree_node_destructorINS_9allocatorINS_11__tree_nodeIiPvEEEEEELi1ELb0EE5__getB8ue170006Ev, symObjAddr: 0x1E9C0, symBinAddr: 0x100020788, symSize: 0x14 }
  - { offsetInCU: 0x24F0D, offset: 0x24F0D, size: 0x8, addend: 0x0, symName: __ZNSt3__16__treeIiNS_4lessIiEENS_9allocatorIiEEE4sizeB8ue170006Ev, symObjAddr: 0x1E9D4, symBinAddr: 0x10002079C, symSize: 0x28 }
  - { offsetInCU: 0x24F33, offset: 0x24F33, size: 0x8, addend: 0x0, symName: __ZNSt3__117__compressed_pairImNS_4lessIiEEE5firstB8ue170006Ev, symObjAddr: 0x1E9FC, symBinAddr: 0x1000207C4, symSize: 0x24 }
  - { offsetInCU: 0x24F59, offset: 0x24F59, size: 0x8, addend: 0x0, symName: __ZNSt3__117__compressed_pairIPNS_11__tree_nodeIiPvEENS_22__tree_node_destructorINS_9allocatorIS3_EEEEE5firstB8ue170006Ev, symObjAddr: 0x1EA20, symBinAddr: 0x1000207E8, symSize: 0x24 }
  - { offsetInCU: 0x24F7F, offset: 0x24F7F, size: 0x8, addend: 0x0, symName: __ZNSt3__122__compressed_pair_elemIPNS_11__tree_nodeIiPvEELi0ELb0EE5__getB8ue170006Ev, symObjAddr: 0x1EA44, symBinAddr: 0x10002080C, symSize: 0x14 }
  - { offsetInCU: 0x24FA5, offset: 0x24FA5, size: 0x8, addend: 0x0, symName: __ZNSt3__110unique_ptrINS_11__tree_nodeIiPvEENS_22__tree_node_destructorINS_9allocatorIS3_EEEEED2B8ue170006Ev, symObjAddr: 0x1EA58, symBinAddr: 0x100020820, symSize: 0x30 }
  - { offsetInCU: 0x24FCF, offset: 0x24FCF, size: 0x8, addend: 0x0, symName: __ZNSt3__110unique_ptrINS_11__tree_nodeIiPvEENS_22__tree_node_destructorINS_9allocatorIS3_EEEEE5resetB8ue170006EPS3_, symObjAddr: 0x1EA88, symBinAddr: 0x100020850, symSize: 0xEC }
  - { offsetInCU: 0x25013, offset: 0x25013, size: 0x8, addend: 0x0, symName: __ZNSt3__122__tree_node_destructorINS_9allocatorINS_11__tree_nodeIiPvEEEEEclB8ue170006EPS4_, symObjAddr: 0x1EB74, symBinAddr: 0x10002093C, symSize: 0x14C }
  - { offsetInCU: 0x25048, offset: 0x25048, size: 0x8, addend: 0x0, symName: __ZNSt3__115__tree_iteratorIiPNS_11__tree_nodeIiPvEElEC2B8ue170006ES4_, symObjAddr: 0x1ECC0, symBinAddr: 0x100020A88, symSize: 0x70 }
  - { offsetInCU: 0x25081, offset: 0x25081, size: 0x8, addend: 0x0, symName: __ZNSt3__14pairINS_15__tree_iteratorIiPNS_11__tree_nodeIiPvEElEEbEC2B8ue170006ERKS6_RKb, symObjAddr: 0x1ED30, symBinAddr: 0x100020AF8, symSize: 0x120 }
  - { offsetInCU: 0x250C7, offset: 0x250C7, size: 0x8, addend: 0x0, symName: __ZNSt3__14pairINS_21__tree_const_iteratorIiPNS_11__tree_nodeIiPvEElEEbEC2B8ue170006INS_15__tree_iteratorIiS5_lEEbEERKNS0_IT_T0_EE, symObjAddr: 0x1EE50, symBinAddr: 0x100020C18, symSize: 0x2E8 }
  - { offsetInCU: 0x25113, offset: 0x25113, size: 0x8, addend: 0x0, symName: __ZNSt3__16__treeIiNS_4lessIiEENS_9allocatorIiEEE14__erase_uniqueIiEEmRKT_, symObjAddr: 0x1F138, symBinAddr: 0x100020F00, symSize: 0x434 }
  - { offsetInCU: 0x25168, offset: 0x25168, size: 0x8, addend: 0x0, symName: __ZNSt3__16__treeIiNS_4lessIiEENS_9allocatorIiEEE4findIiEENS_15__tree_iteratorIiPNS_11__tree_nodeIiPvEElEERKT_, symObjAddr: 0x1F56C, symBinAddr: 0x100021334, symSize: 0x3FC }
  - { offsetInCU: 0x251BD, offset: 0x251BD, size: 0x8, addend: 0x0, symName: __ZNSt3__16__treeIiNS_4lessIiEENS_9allocatorIiEEE5eraseENS_21__tree_const_iteratorIiPNS_11__tree_nodeIiPvEElEE, symObjAddr: 0x1FA20, symBinAddr: 0x1000217E8, symSize: 0x310 }
  - { offsetInCU: 0x2522C, offset: 0x2522C, size: 0x8, addend: 0x0, symName: __ZNSt3__16__treeIiNS_4lessIiEENS_9allocatorIiEEE13__lower_boundIiEENS_15__tree_iteratorIiPNS_11__tree_nodeIiPvEElEERKT_SB_PNS_15__tree_end_nodeIPNS_16__tree_node_baseIS9_EEEE, symObjAddr: 0x1FD30, symBinAddr: 0x100021AF8, symSize: 0x2E0 }
  - { offsetInCU: 0x2528E, offset: 0x2528E, size: 0x8, addend: 0x0, symName: __ZNKSt3__115__tree_iteratorIiPNS_11__tree_nodeIiPvEElEdeB8ue170006Ev, symObjAddr: 0x20044, symBinAddr: 0x100021E0C, symSize: 0x28 }
  - { offsetInCU: 0x252B4, offset: 0x252B4, size: 0x8, addend: 0x0, symName: __ZNKSt3__115__tree_iteratorIiPNS_11__tree_nodeIiPvEElE8__get_npB8ue170006Ev, symObjAddr: 0x2006C, symBinAddr: 0x100021E34, symSize: 0x60 }
  - { offsetInCU: 0x252DA, offset: 0x252DA, size: 0x8, addend: 0x0, symName: __ZNSt3__16__treeIiNS_4lessIiEENS_9allocatorIiEEE21__remove_node_pointerEPNS_11__tree_nodeIiPvEE, symObjAddr: 0x200CC, symBinAddr: 0x100021E94, symSize: 0x39C }
  - { offsetInCU: 0x25326, offset: 0x25326, size: 0x8, addend: 0x0, symName: __ZNSt3__115__tree_iteratorIiPNS_11__tree_nodeIiPvEElEppB8ue170006Ev, symObjAddr: 0x20468, symBinAddr: 0x100022230, symSize: 0xA8 }
  - { offsetInCU: 0x2534C, offset: 0x2534C, size: 0x8, addend: 0x0, symName: __ZN5RegexD2Ev, symObjAddr: 0x20510, symBinAddr: 0x1000222D8, symSize: 0x160 }
  - { offsetInCU: 0x25376, offset: 0x25376, size: 0x8, addend: 0x0, symName: __ZN5StateD1Ev, symObjAddr: 0x20670, symBinAddr: 0x100022438, symSize: 0x2C }
  - { offsetInCU: 0x253A0, offset: 0x253A0, size: 0x8, addend: 0x0, symName: __ZNSt3__113unordered_setIiNS_4hashIiEENS_8equal_toIiEENS_9allocatorIiEEEC1B8ue170006Ev, symObjAddr: 0x21680, symBinAddr: 0x100023448, symSize: 0x2C }
  - { offsetInCU: 0x253CA, offset: 0x253CA, size: 0x8, addend: 0x0, symName: __ZNSt3__113unordered_setIiNS_4hashIiEENS_8equal_toIiEENS_9allocatorIiEEED1B8ue170006Ev, symObjAddr: 0x216AC, symBinAddr: 0x100023474, symSize: 0x2C }
  - { offsetInCU: 0x253F4, offset: 0x253F4, size: 0x8, addend: 0x0, symName: __ZNSt3__113unordered_setIiNS_4hashIiEENS_8equal_toIiEENS_9allocatorIiEEE4findB8ue170006ERKi, symObjAddr: 0x2170C, symBinAddr: 0x1000234D4, symSize: 0x290 }
  - { offsetInCU: 0x2542B, offset: 0x2542B, size: 0x8, addend: 0x0, symName: __ZNSt3__113unordered_setIiNS_4hashIiEENS_8equal_toIiEENS_9allocatorIiEEE3endB8ue170006Ev, symObjAddr: 0x2199C, symBinAddr: 0x100023764, symSize: 0x288 }
  - { offsetInCU: 0x25452, offset: 0x25452, size: 0x8, addend: 0x0, symName: __ZNKSt3__113unordered_setIiNS_4hashIiEENS_8equal_toIiEENS_9allocatorIiEEE5emptyB8ue170006Ev, symObjAddr: 0x21C24, symBinAddr: 0x1000239EC, symSize: 0x30 }
  - { offsetInCU: 0x25478, offset: 0x25478, size: 0x8, addend: 0x0, symName: __ZN5State8set_rootEb, symObjAddr: 0x21C54, symBinAddr: 0x100023A1C, symSize: 0xA8 }
  - { offsetInCU: 0x254AC, offset: 0x254AC, size: 0x8, addend: 0x0, symName: __ZNSt3__113unordered_setIiNS_4hashIiEENS_8equal_toIiEENS_9allocatorIiEEE5clearB8ue170006Ev, symObjAddr: 0x21CFC, symBinAddr: 0x100023AC4, symSize: 0x24 }
  - { offsetInCU: 0x254D2, offset: 0x254D2, size: 0x8, addend: 0x0, symName: __ZNSt3__113unordered_setIiNS_4hashIiEENS_8equal_toIiEENS_9allocatorIiEEE6insertB8ue170006ERKi, symObjAddr: 0x21D20, symBinAddr: 0x100023AE8, symSize: 0x2A8 }
  - { offsetInCU: 0x25509, offset: 0x25509, size: 0x8, addend: 0x0, symName: __ZNSt3__113unordered_setIiNS_4hashIiEENS_8equal_toIiEENS_9allocatorIiEEEC2B8ue170006Ev, symObjAddr: 0x22080, symBinAddr: 0x100023E48, symSize: 0x2C }
  - { offsetInCU: 0x25533, offset: 0x25533, size: 0x8, addend: 0x0, symName: __ZNSt3__112__hash_tableIiNS_4hashIiEENS_8equal_toIiEENS_9allocatorIiEEEC1Ev, symObjAddr: 0x220AC, symBinAddr: 0x100023E74, symSize: 0x2C }
  - { offsetInCU: 0x2555F, offset: 0x2555F, size: 0x8, addend: 0x0, symName: __ZNSt3__112__hash_tableIiNS_4hashIiEENS_8equal_toIiEENS_9allocatorIiEEEC2Ev, symObjAddr: 0x220D8, symBinAddr: 0x100023EA0, symSize: 0x474 }
  - { offsetInCU: 0x2558C, offset: 0x2558C, size: 0x8, addend: 0x0, symName: __ZNSt3__110unique_ptrIA_PNS_16__hash_node_baseIPNS_11__hash_nodeIiPvEEEENS_25__bucket_list_deallocatorINS_9allocatorIS7_EEEEEC1B8ue170006ILb1EvEEv, symObjAddr: 0x2254C, symBinAddr: 0x100024314, symSize: 0x2C }
  - { offsetInCU: 0x255C1, offset: 0x255C1, size: 0x8, addend: 0x0, symName: __ZNSt3__117__compressed_pairINS_16__hash_node_baseIPNS_11__hash_nodeIiPvEEEENS_9allocatorIS4_EEEC1B8ue170006ILb1EvEEv, symObjAddr: 0x22578, symBinAddr: 0x100024340, symSize: 0x2C }
  - { offsetInCU: 0x255FC, offset: 0x255FC, size: 0x8, addend: 0x0, symName: __ZNSt3__117__compressed_pairImNS_4hashIiEEEC1B8ue170006IiNS_18__default_init_tagEEEOT_OT0_, symObjAddr: 0x225A4, symBinAddr: 0x10002436C, symSize: 0x3C }
  - { offsetInCU: 0x2565A, offset: 0x2565A, size: 0x8, addend: 0x0, symName: __ZNSt3__117__compressed_pairIfNS_8equal_toIiEEEC1B8ue170006IfNS_18__default_init_tagEEEOT_OT0_, symObjAddr: 0x225E0, symBinAddr: 0x1000243A8, symSize: 0x3C }
  - { offsetInCU: 0x256B2, offset: 0x256B2, size: 0x8, addend: 0x0, symName: __ZNSt3__110unique_ptrIA_PNS_16__hash_node_baseIPNS_11__hash_nodeIiPvEEEENS_25__bucket_list_deallocatorINS_9allocatorIS7_EEEEED1B8ue170006Ev, symObjAddr: 0x2261C, symBinAddr: 0x1000243E4, symSize: 0x2C }
  - { offsetInCU: 0x256DC, offset: 0x256DC, size: 0x8, addend: 0x0, symName: __ZNSt3__110unique_ptrIA_PNS_16__hash_node_baseIPNS_11__hash_nodeIiPvEEEENS_25__bucket_list_deallocatorINS_9allocatorIS7_EEEEEC2B8ue170006ILb1EvEEv, symObjAddr: 0x22648, symBinAddr: 0x100024410, symSize: 0x22C }
  - { offsetInCU: 0x25718, offset: 0x25718, size: 0x8, addend: 0x0, symName: __ZNSt3__117__compressed_pairIPPNS_16__hash_node_baseIPNS_11__hash_nodeIiPvEEEENS_25__bucket_list_deallocatorINS_9allocatorIS7_EEEEEC1B8ue170006INS_16__value_init_tagESF_EEOT_OT0_, symObjAddr: 0x22874, symBinAddr: 0x10002463C, symSize: 0x3C }
  - { offsetInCU: 0x25770, offset: 0x25770, size: 0x8, addend: 0x0, symName: __ZNSt3__117__compressed_pairIPPNS_16__hash_node_baseIPNS_11__hash_nodeIiPvEEEENS_25__bucket_list_deallocatorINS_9allocatorIS7_EEEEEC2B8ue170006INS_16__value_init_tagESF_EEOT_OT0_, symObjAddr: 0x228B0, symBinAddr: 0x100024678, symSize: 0x40 }
  - { offsetInCU: 0x257C8, offset: 0x257C8, size: 0x8, addend: 0x0, symName: __ZNSt3__122__compressed_pair_elemIPPNS_16__hash_node_baseIPNS_11__hash_nodeIiPvEEEELi0ELb0EEC2B8ue170006ENS_16__value_init_tagE, symObjAddr: 0x228F0, symBinAddr: 0x1000246B8, symSize: 0x60 }
  - { offsetInCU: 0x257FC, offset: 0x257FC, size: 0x8, addend: 0x0, symName: __ZNSt3__122__compressed_pair_elemINS_25__bucket_list_deallocatorINS_9allocatorIPNS_16__hash_node_baseIPNS_11__hash_nodeIiPvEEEEEEEELi1ELb0EEC2B8ue170006ENS_16__value_init_tagE, symObjAddr: 0x22950, symBinAddr: 0x100024718, symSize: 0x2C }
  - { offsetInCU: 0x25830, offset: 0x25830, size: 0x8, addend: 0x0, symName: __ZNSt3__125__bucket_list_deallocatorINS_9allocatorIPNS_16__hash_node_baseIPNS_11__hash_nodeIiPvEEEEEEEC1B8ue170006Ev, symObjAddr: 0x2297C, symBinAddr: 0x100024744, symSize: 0x2C }
  - { offsetInCU: 0x2585A, offset: 0x2585A, size: 0x8, addend: 0x0, symName: __ZNSt3__125__bucket_list_deallocatorINS_9allocatorIPNS_16__hash_node_baseIPNS_11__hash_nodeIiPvEEEEEEEC2B8ue170006Ev, symObjAddr: 0x229A8, symBinAddr: 0x100024770, symSize: 0x25C }
  - { offsetInCU: 0x25885, offset: 0x25885, size: 0x8, addend: 0x0, symName: __ZNSt3__117__compressed_pairImNS_9allocatorIPNS_16__hash_node_baseIPNS_11__hash_nodeIiPvEEEEEEEC1B8ue170006IiNS_18__default_init_tagEEEOT_OT0_, symObjAddr: 0x22C04, symBinAddr: 0x1000249CC, symSize: 0x3C }
  - { offsetInCU: 0x258DD, offset: 0x258DD, size: 0x8, addend: 0x0, symName: __ZNSt3__117__compressed_pairImNS_9allocatorIPNS_16__hash_node_baseIPNS_11__hash_nodeIiPvEEEEEEEC2B8ue170006IiNS_18__default_init_tagEEEOT_OT0_, symObjAddr: 0x22C40, symBinAddr: 0x100024A08, symSize: 0x40 }
  - { offsetInCU: 0x25935, offset: 0x25935, size: 0x8, addend: 0x0, symName: __ZNSt3__122__compressed_pair_elemINS_9allocatorIPNS_16__hash_node_baseIPNS_11__hash_nodeIiPvEEEEEELi1ELb1EEC2B8ue170006ENS_18__default_init_tagE, symObjAddr: 0x22C80, symBinAddr: 0x100024A48, symSize: 0x2C }
  - { offsetInCU: 0x25969, offset: 0x25969, size: 0x8, addend: 0x0, symName: __ZNSt3__19allocatorIPNS_16__hash_node_baseIPNS_11__hash_nodeIiPvEEEEEC2B8ue170006Ev, symObjAddr: 0x22CAC, symBinAddr: 0x100024A74, symSize: 0x2C }
  - { offsetInCU: 0x25993, offset: 0x25993, size: 0x8, addend: 0x0, symName: __ZNSt3__116__non_trivial_ifILb1ENS_9allocatorIPNS_16__hash_node_baseIPNS_11__hash_nodeIiPvEEEEEEEC2B8ue170006Ev, symObjAddr: 0x22CD8, symBinAddr: 0x100024AA0, symSize: 0x14 }
  - { offsetInCU: 0x259BD, offset: 0x259BD, size: 0x8, addend: 0x0, symName: __ZNSt3__117__compressed_pairINS_16__hash_node_baseIPNS_11__hash_nodeIiPvEEEENS_9allocatorIS4_EEEC2B8ue170006ILb1EvEEv, symObjAddr: 0x22CEC, symBinAddr: 0x100024AB4, symSize: 0x34 }
  - { offsetInCU: 0x259F2, offset: 0x259F2, size: 0x8, addend: 0x0, symName: __ZNSt3__122__compressed_pair_elemINS_16__hash_node_baseIPNS_11__hash_nodeIiPvEEEELi0ELb0EEC2B8ue170006ENS_16__value_init_tagE, symObjAddr: 0x22D20, symBinAddr: 0x100024AE8, symSize: 0x2C }
  - { offsetInCU: 0x25A26, offset: 0x25A26, size: 0x8, addend: 0x0, symName: __ZNSt3__122__compressed_pair_elemINS_9allocatorINS_11__hash_nodeIiPvEEEELi1ELb1EEC2B8ue170006ENS_16__value_init_tagE, symObjAddr: 0x22D4C, symBinAddr: 0x100024B14, symSize: 0x2C }
  - { offsetInCU: 0x25A5A, offset: 0x25A5A, size: 0x8, addend: 0x0, symName: __ZNSt3__116__hash_node_baseIPNS_11__hash_nodeIiPvEEEC1B8ue170006Ev, symObjAddr: 0x22D78, symBinAddr: 0x100024B40, symSize: 0x2C }
  - { offsetInCU: 0x25A84, offset: 0x25A84, size: 0x8, addend: 0x0, symName: __ZNSt3__116__hash_node_baseIPNS_11__hash_nodeIiPvEEEC2B8ue170006Ev, symObjAddr: 0x22DA4, symBinAddr: 0x100024B6C, symSize: 0x60 }
  - { offsetInCU: 0x25AAE, offset: 0x25AAE, size: 0x8, addend: 0x0, symName: __ZNSt3__19allocatorINS_11__hash_nodeIiPvEEEC2B8ue170006Ev, symObjAddr: 0x22E04, symBinAddr: 0x100024BCC, symSize: 0x2C }
  - { offsetInCU: 0x25AD8, offset: 0x25AD8, size: 0x8, addend: 0x0, symName: __ZNSt3__116__non_trivial_ifILb1ENS_9allocatorINS_11__hash_nodeIiPvEEEEEC2B8ue170006Ev, symObjAddr: 0x22E30, symBinAddr: 0x100024BF8, symSize: 0x14 }
  - { offsetInCU: 0x25B02, offset: 0x25B02, size: 0x8, addend: 0x0, symName: __ZNSt3__117__compressed_pairImNS_4hashIiEEEC2B8ue170006IiNS_18__default_init_tagEEEOT_OT0_, symObjAddr: 0x22E44, symBinAddr: 0x100024C0C, symSize: 0x40 }
  - { offsetInCU: 0x25B5A, offset: 0x25B5A, size: 0x8, addend: 0x0, symName: __ZNSt3__122__compressed_pair_elemINS_4hashIiEELi1ELb1EEC2B8ue170006ENS_18__default_init_tagE, symObjAddr: 0x22E84, symBinAddr: 0x100024C4C, symSize: 0x14 }
  - { offsetInCU: 0x25B8E, offset: 0x25B8E, size: 0x8, addend: 0x0, symName: __ZNSt3__117__compressed_pairIfNS_8equal_toIiEEEC2B8ue170006IfNS_18__default_init_tagEEEOT_OT0_, symObjAddr: 0x22E98, symBinAddr: 0x100024C60, symSize: 0x40 }
  - { offsetInCU: 0x25BE6, offset: 0x25BE6, size: 0x8, addend: 0x0, symName: __ZNSt3__122__compressed_pair_elemIfLi0ELb0EEC2B8ue170006IfvEEOT_, symObjAddr: 0x22ED8, symBinAddr: 0x100024CA0, symSize: 0x100 }
  - { offsetInCU: 0x25C28, offset: 0x25C28, size: 0x8, addend: 0x0, symName: __ZNSt3__122__compressed_pair_elemINS_8equal_toIiEELi1ELb1EEC2B8ue170006ENS_18__default_init_tagE, symObjAddr: 0x22FD8, symBinAddr: 0x100024DA0, symSize: 0x14 }
  - { offsetInCU: 0x25C5C, offset: 0x25C5C, size: 0x8, addend: 0x0, symName: __ZNSt3__110unique_ptrIA_PNS_16__hash_node_baseIPNS_11__hash_nodeIiPvEEEENS_25__bucket_list_deallocatorINS_9allocatorIS7_EEEEED2B8ue170006Ev, symObjAddr: 0x22FEC, symBinAddr: 0x100024DB4, symSize: 0x30 }
  - { offsetInCU: 0x25C86, offset: 0x25C86, size: 0x8, addend: 0x0, symName: __ZNSt3__110unique_ptrIA_PNS_16__hash_node_baseIPNS_11__hash_nodeIiPvEEEENS_25__bucket_list_deallocatorINS_9allocatorIS7_EEEEE5resetB8ue170006EDn, symObjAddr: 0x2301C, symBinAddr: 0x100024DE4, symSize: 0xE0 }
  - { offsetInCU: 0x25CC6, offset: 0x25CC6, size: 0x8, addend: 0x0, symName: __ZNSt3__117__compressed_pairIPPNS_16__hash_node_baseIPNS_11__hash_nodeIiPvEEEENS_25__bucket_list_deallocatorINS_9allocatorIS7_EEEEE5firstB8ue170006Ev, symObjAddr: 0x230FC, symBinAddr: 0x100024EC4, symSize: 0x24 }
  - { offsetInCU: 0x25CEC, offset: 0x25CEC, size: 0x8, addend: 0x0, symName: __ZNSt3__117__compressed_pairIPPNS_16__hash_node_baseIPNS_11__hash_nodeIiPvEEEENS_25__bucket_list_deallocatorINS_9allocatorIS7_EEEEE6secondB8ue170006Ev, symObjAddr: 0x23120, symBinAddr: 0x100024EE8, symSize: 0x28 }
  - { offsetInCU: 0x25D12, offset: 0x25D12, size: 0x8, addend: 0x0, symName: __ZNSt3__125__bucket_list_deallocatorINS_9allocatorIPNS_16__hash_node_baseIPNS_11__hash_nodeIiPvEEEEEEEclB8ue170006EPS8_, symObjAddr: 0x23148, symBinAddr: 0x100024F10, symSize: 0x98 }
  - { offsetInCU: 0x25D47, offset: 0x25D47, size: 0x8, addend: 0x0, symName: __ZNSt3__122__compressed_pair_elemIPPNS_16__hash_node_baseIPNS_11__hash_nodeIiPvEEEELi0ELb0EE5__getB8ue170006Ev, symObjAddr: 0x231E0, symBinAddr: 0x100024FA8, symSize: 0x14 }
  - { offsetInCU: 0x25D6D, offset: 0x25D6D, size: 0x8, addend: 0x0, symName: __ZNSt3__122__compressed_pair_elemINS_25__bucket_list_deallocatorINS_9allocatorIPNS_16__hash_node_baseIPNS_11__hash_nodeIiPvEEEEEEEELi1ELb0EE5__getB8ue170006Ev, symObjAddr: 0x231F4, symBinAddr: 0x100024FBC, symSize: 0x14 }
  - { offsetInCU: 0x25D93, offset: 0x25D93, size: 0x8, addend: 0x0, symName: __ZNSt3__116allocator_traitsINS_9allocatorIPNS_16__hash_node_baseIPNS_11__hash_nodeIiPvEEEEEEE10deallocateB8ue170006ERS9_PS8_m, symObjAddr: 0x23208, symBinAddr: 0x100024FD0, symSize: 0x34 }
  - { offsetInCU: 0x25DD5, offset: 0x25DD5, size: 0x8, addend: 0x0, symName: __ZNSt3__125__bucket_list_deallocatorINS_9allocatorIPNS_16__hash_node_baseIPNS_11__hash_nodeIiPvEEEEEEE7__allocB8ue170006Ev, symObjAddr: 0x2323C, symBinAddr: 0x100025004, symSize: 0x24 }
  - { offsetInCU: 0x25DFB, offset: 0x25DFB, size: 0x8, addend: 0x0, symName: __ZNSt3__125__bucket_list_deallocatorINS_9allocatorIPNS_16__hash_node_baseIPNS_11__hash_nodeIiPvEEEEEEE4sizeB8ue170006Ev, symObjAddr: 0x23260, symBinAddr: 0x100025028, symSize: 0x24 }
  - { offsetInCU: 0x25E21, offset: 0x25E21, size: 0x8, addend: 0x0, symName: __ZNSt3__19allocatorIPNS_16__hash_node_baseIPNS_11__hash_nodeIiPvEEEEE10deallocateB8ue170006EPS7_m, symObjAddr: 0x23284, symBinAddr: 0x10002504C, symSize: 0x7C }
  - { offsetInCU: 0x25E63, offset: 0x25E63, size: 0x8, addend: 0x0, symName: __ZNSt3__117__compressed_pairImNS_9allocatorIPNS_16__hash_node_baseIPNS_11__hash_nodeIiPvEEEEEEE6secondB8ue170006Ev, symObjAddr: 0x23300, symBinAddr: 0x1000250C8, symSize: 0x24 }
  - { offsetInCU: 0x25E89, offset: 0x25E89, size: 0x8, addend: 0x0, symName: __ZNSt3__122__compressed_pair_elemINS_9allocatorIPNS_16__hash_node_baseIPNS_11__hash_nodeIiPvEEEEEELi1ELb1EE5__getB8ue170006Ev, symObjAddr: 0x23324, symBinAddr: 0x1000250EC, symSize: 0x14 }
  - { offsetInCU: 0x25EAF, offset: 0x25EAF, size: 0x8, addend: 0x0, symName: __ZNSt3__117__compressed_pairImNS_9allocatorIPNS_16__hash_node_baseIPNS_11__hash_nodeIiPvEEEEEEE5firstB8ue170006Ev, symObjAddr: 0x23338, symBinAddr: 0x100025100, symSize: 0x24 }
  - { offsetInCU: 0x25ED5, offset: 0x25ED5, size: 0x8, addend: 0x0, symName: __ZNSt3__113unordered_setIiNS_4hashIiEENS_8equal_toIiEENS_9allocatorIiEEED2B8ue170006Ev, symObjAddr: 0x2335C, symBinAddr: 0x100025124, symSize: 0x2C }
  - { offsetInCU: 0x25EFF, offset: 0x25EFF, size: 0x8, addend: 0x0, symName: __ZNSt3__112__hash_tableIiNS_4hashIiEENS_8equal_toIiEENS_9allocatorIiEEED1Ev, symObjAddr: 0x23388, symBinAddr: 0x100025150, symSize: 0x2C }
  - { offsetInCU: 0x25F2B, offset: 0x25F2B, size: 0x8, addend: 0x0, symName: __ZNSt3__112__hash_tableIiNS_4hashIiEENS_8equal_toIiEENS_9allocatorIiEEED2Ev, symObjAddr: 0x233B4, symBinAddr: 0x10002517C, symSize: 0x88 }
  - { offsetInCU: 0x25F57, offset: 0x25F57, size: 0x8, addend: 0x0, symName: __ZNSt3__112__hash_tableIiNS_4hashIiEENS_8equal_toIiEENS_9allocatorIiEEE17__deallocate_nodeEPNS_16__hash_node_baseIPNS_11__hash_nodeIiPvEEEE, symObjAddr: 0x2343C, symBinAddr: 0x100025204, symSize: 0x10C }
  - { offsetInCU: 0x25FC1, offset: 0x25FC1, size: 0x8, addend: 0x0, symName: __ZNSt3__117__compressed_pairINS_16__hash_node_baseIPNS_11__hash_nodeIiPvEEEENS_9allocatorIS4_EEE5firstB8ue170006Ev, symObjAddr: 0x23548, symBinAddr: 0x100025310, symSize: 0x24 }
  - { offsetInCU: 0x25FE7, offset: 0x25FE7, size: 0x8, addend: 0x0, symName: __ZNSt3__112__hash_tableIiNS_4hashIiEENS_8equal_toIiEENS_9allocatorIiEEE12__node_allocB8ue170006Ev, symObjAddr: 0x2356C, symBinAddr: 0x100025334, symSize: 0x28 }
  - { offsetInCU: 0x2600D, offset: 0x2600D, size: 0x8, addend: 0x0, symName: __ZNSt3__116__hash_node_baseIPNS_11__hash_nodeIiPvEEE8__upcastB8ue170006Ev, symObjAddr: 0x23594, symBinAddr: 0x10002535C, symSize: 0x24 }
  - { offsetInCU: 0x26033, offset: 0x26033, size: 0x8, addend: 0x0, symName: __ZNSt3__116allocator_traitsINS_9allocatorINS_11__hash_nodeIiPvEEEEE7destroyB8ue170006IivvEEvRS5_PT_, symObjAddr: 0x235B8, symBinAddr: 0x100025380, symSize: 0x14 }
  - { offsetInCU: 0x2606D, offset: 0x2606D, size: 0x8, addend: 0x0, symName: __ZNSt3__122__hash_key_value_typesIiE9__get_ptrB8ue170006ERi, symObjAddr: 0x235CC, symBinAddr: 0x100025394, symSize: 0x14 }
  - { offsetInCU: 0x26090, offset: 0x26090, size: 0x8, addend: 0x0, symName: __ZNSt3__116allocator_traitsINS_9allocatorINS_11__hash_nodeIiPvEEEEE10deallocateB8ue170006ERS5_PS4_m, symObjAddr: 0x235E0, symBinAddr: 0x1000253A8, symSize: 0x34 }
  - { offsetInCU: 0x260D2, offset: 0x260D2, size: 0x8, addend: 0x0, symName: __ZNSt3__117__compressed_pairINS_16__hash_node_baseIPNS_11__hash_nodeIiPvEEEENS_9allocatorIS4_EEE6secondB8ue170006Ev, symObjAddr: 0x23614, symBinAddr: 0x1000253DC, symSize: 0x24 }
  - { offsetInCU: 0x260F8, offset: 0x260F8, size: 0x8, addend: 0x0, symName: __ZNSt3__122__compressed_pair_elemINS_9allocatorINS_11__hash_nodeIiPvEEEELi1ELb1EE5__getB8ue170006Ev, symObjAddr: 0x23638, symBinAddr: 0x100025400, symSize: 0x14 }
  - { offsetInCU: 0x2611E, offset: 0x2611E, size: 0x8, addend: 0x0, symName: __ZNSt3__114pointer_traitsIPNS_16__hash_node_baseIPNS_11__hash_nodeIiPvEEEEE10pointer_toB8ue170006ERS6_, symObjAddr: 0x2364C, symBinAddr: 0x100025414, symSize: 0x14 }
  - { offsetInCU: 0x26141, offset: 0x26141, size: 0x8, addend: 0x0, symName: __ZNSt3__19allocatorINS_11__hash_nodeIiPvEEE10deallocateB8ue170006EPS3_m, symObjAddr: 0x23660, symBinAddr: 0x100025428, symSize: 0x80 }
  - { offsetInCU: 0x26183, offset: 0x26183, size: 0x8, addend: 0x0, symName: __ZNSt3__122__compressed_pair_elemINS_16__hash_node_baseIPNS_11__hash_nodeIiPvEEEELi0ELb0EE5__getB8ue170006Ev, symObjAddr: 0x236E0, symBinAddr: 0x1000254A8, symSize: 0x14 }
  - { offsetInCU: 0x261A9, offset: 0x261A9, size: 0x8, addend: 0x0, symName: __ZNSt3__112__hash_tableIiNS_4hashIiEENS_8equal_toIiEENS_9allocatorIiEEE4findIiEENS_15__hash_iteratorIPNS_11__hash_nodeIiPvEEEERKT_, symObjAddr: 0x236F4, symBinAddr: 0x1000254BC, symSize: 0x4EC }
  - { offsetInCU: 0x26231, offset: 0x26231, size: 0x8, addend: 0x0, symName: __ZNSt3__121__hash_const_iteratorIPNS_11__hash_nodeIiPvEEEC1B8ue170006ERKNS_15__hash_iteratorIS4_EE, symObjAddr: 0x23BE0, symBinAddr: 0x1000259A8, symSize: 0x34 }
  - { offsetInCU: 0x2626A, offset: 0x2626A, size: 0x8, addend: 0x0, symName: __ZNSt3__112__hash_tableIiNS_4hashIiEENS_8equal_toIiEENS_9allocatorIiEEE13hash_functionB8ue170006Ev, symObjAddr: 0x23C14, symBinAddr: 0x1000259DC, symSize: 0x28 }
  - { offsetInCU: 0x26290, offset: 0x26290, size: 0x8, addend: 0x0, symName: __ZNKSt3__14hashIiEclB8ue170006Ei, symObjAddr: 0x23C3C, symBinAddr: 0x100025A04, symSize: 0x18 }
  - { offsetInCU: 0x262C5, offset: 0x262C5, size: 0x8, addend: 0x0, symName: __ZNKSt3__112__hash_tableIiNS_4hashIiEENS_8equal_toIiEENS_9allocatorIiEEE12bucket_countB8ue170006Ev, symObjAddr: 0x23C54, symBinAddr: 0x100025A1C, symSize: 0x28 }
  - { offsetInCU: 0x262EB, offset: 0x262EB, size: 0x8, addend: 0x0, symName: __ZNKSt3__110unique_ptrIA_PNS_16__hash_node_baseIPNS_11__hash_nodeIiPvEEEENS_25__bucket_list_deallocatorINS_9allocatorIS7_EEEEEixB8ue170006Em, symObjAddr: 0x23D14, symBinAddr: 0x100025ADC, symSize: 0x78 }
  - { offsetInCU: 0x26320, offset: 0x26320, size: 0x8, addend: 0x0, symName: __ZNKSt3__116__hash_node_baseIPNS_11__hash_nodeIiPvEEE6__hashB8ue170006Ev, symObjAddr: 0x23D8C, symBinAddr: 0x100025B54, symSize: 0x64 }
  - { offsetInCU: 0x26346, offset: 0x26346, size: 0x8, addend: 0x0, symName: __ZNSt3__112__hash_tableIiNS_4hashIiEENS_8equal_toIiEENS_9allocatorIiEEE6key_eqB8ue170006Ev, symObjAddr: 0x23DF0, symBinAddr: 0x100025BB8, symSize: 0x28 }
  - { offsetInCU: 0x2636C, offset: 0x2636C, size: 0x8, addend: 0x0, symName: __ZNKSt3__18equal_toIiEclB8ue170006ERKiS3_, symObjAddr: 0x23E18, symBinAddr: 0x100025BE0, symSize: 0x10C }
  - { offsetInCU: 0x263B0, offset: 0x263B0, size: 0x8, addend: 0x0, symName: __ZNSt3__115__hash_iteratorIPNS_11__hash_nodeIiPvEEEC1B8ue170006EPNS_16__hash_node_baseIS4_EE, symObjAddr: 0x23F24, symBinAddr: 0x100025CEC, symSize: 0x34 }
  - { offsetInCU: 0x263E9, offset: 0x263E9, size: 0x8, addend: 0x0, symName: __ZNSt3__112__hash_tableIiNS_4hashIiEENS_8equal_toIiEENS_9allocatorIiEEE3endEv, symObjAddr: 0x23F58, symBinAddr: 0x100025D20, symSize: 0x1F8 }
  - { offsetInCU: 0x26412, offset: 0x26412, size: 0x8, addend: 0x0, symName: __ZNSt3__117__compressed_pairImNS_4hashIiEEE6secondB8ue170006Ev, symObjAddr: 0x24150, symBinAddr: 0x100025F18, symSize: 0x24 }
  - { offsetInCU: 0x26438, offset: 0x26438, size: 0x8, addend: 0x0, symName: __ZNSt3__122__compressed_pair_elemINS_4hashIiEELi1ELb1EE5__getB8ue170006Ev, symObjAddr: 0x24174, symBinAddr: 0x100025F3C, symSize: 0x14 }
  - { offsetInCU: 0x2645E, offset: 0x2645E, size: 0x8, addend: 0x0, symName: __ZNKSt3__110unique_ptrIA_PNS_16__hash_node_baseIPNS_11__hash_nodeIiPvEEEENS_25__bucket_list_deallocatorINS_9allocatorIS7_EEEEE11get_deleterB8ue170006Ev, symObjAddr: 0x24188, symBinAddr: 0x100025F50, symSize: 0x24 }
  - { offsetInCU: 0x26484, offset: 0x26484, size: 0x8, addend: 0x0, symName: __ZNKSt3__125__bucket_list_deallocatorINS_9allocatorIPNS_16__hash_node_baseIPNS_11__hash_nodeIiPvEEEEEEE4sizeB8ue170006Ev, symObjAddr: 0x241AC, symBinAddr: 0x100025F74, symSize: 0x6C }
  - { offsetInCU: 0x264AA, offset: 0x264AA, size: 0x8, addend: 0x0, symName: __ZNKSt3__117__compressed_pairIPPNS_16__hash_node_baseIPNS_11__hash_nodeIiPvEEEENS_25__bucket_list_deallocatorINS_9allocatorIS7_EEEEE6secondB8ue170006Ev, symObjAddr: 0x24218, symBinAddr: 0x100025FE0, symSize: 0x28 }
  - { offsetInCU: 0x264D0, offset: 0x264D0, size: 0x8, addend: 0x0, symName: __ZNKSt3__122__compressed_pair_elemINS_25__bucket_list_deallocatorINS_9allocatorIPNS_16__hash_node_baseIPNS_11__hash_nodeIiPvEEEEEEEELi1ELb0EE5__getB8ue170006Ev, symObjAddr: 0x24240, symBinAddr: 0x100026008, symSize: 0x14 }
  - { offsetInCU: 0x264F6, offset: 0x264F6, size: 0x8, addend: 0x0, symName: __ZNKSt3__117__compressed_pairImNS_9allocatorIPNS_16__hash_node_baseIPNS_11__hash_nodeIiPvEEEEEEE5firstB8ue170006Ev, symObjAddr: 0x24254, symBinAddr: 0x10002601C, symSize: 0x24 }
  - { offsetInCU: 0x2651C, offset: 0x2651C, size: 0x8, addend: 0x0, symName: __ZNKSt3__117__compressed_pairIPPNS_16__hash_node_baseIPNS_11__hash_nodeIiPvEEEENS_25__bucket_list_deallocatorINS_9allocatorIS7_EEEEE5firstB8ue170006Ev, symObjAddr: 0x24278, symBinAddr: 0x100026040, symSize: 0x24 }
  - { offsetInCU: 0x26542, offset: 0x26542, size: 0x8, addend: 0x0, symName: __ZNKSt3__122__compressed_pair_elemIPPNS_16__hash_node_baseIPNS_11__hash_nodeIiPvEEEELi0ELb0EE5__getB8ue170006Ev, symObjAddr: 0x2429C, symBinAddr: 0x100026064, symSize: 0x14 }
  - { offsetInCU: 0x26568, offset: 0x26568, size: 0x8, addend: 0x0, symName: __ZNSt3__117__compressed_pairIfNS_8equal_toIiEEE6secondB8ue170006Ev, symObjAddr: 0x242B0, symBinAddr: 0x100026078, symSize: 0x24 }
  - { offsetInCU: 0x2658E, offset: 0x2658E, size: 0x8, addend: 0x0, symName: __ZNSt3__122__compressed_pair_elemINS_8equal_toIiEELi1ELb1EE5__getB8ue170006Ev, symObjAddr: 0x242D4, symBinAddr: 0x10002609C, symSize: 0x14 }
  - { offsetInCU: 0x265B4, offset: 0x265B4, size: 0x8, addend: 0x0, symName: __ZNSt3__115__hash_iteratorIPNS_11__hash_nodeIiPvEEEC2B8ue170006EPNS_16__hash_node_baseIS4_EE, symObjAddr: 0x242E8, symBinAddr: 0x1000260B0, symSize: 0x70 }
  - { offsetInCU: 0x265ED, offset: 0x265ED, size: 0x8, addend: 0x0, symName: __ZNSt3__121__hash_const_iteratorIPNS_11__hash_nodeIiPvEEEC2B8ue170006ERKNS_15__hash_iteratorIS4_EE, symObjAddr: 0x24358, symBinAddr: 0x100026120, symSize: 0xB0 }
  - { offsetInCU: 0x26626, offset: 0x26626, size: 0x8, addend: 0x0, symName: __ZNKSt3__112__hash_tableIiNS_4hashIiEENS_8equal_toIiEENS_9allocatorIiEEE4sizeB8ue170006Ev, symObjAddr: 0x24408, symBinAddr: 0x1000261D0, symSize: 0x70 }
  - { offsetInCU: 0x2664C, offset: 0x2664C, size: 0x8, addend: 0x0, symName: __ZNKSt3__117__compressed_pairImNS_4hashIiEEE5firstB8ue170006Ev, symObjAddr: 0x24478, symBinAddr: 0x100026240, symSize: 0x24 }
  - { offsetInCU: 0x26672, offset: 0x26672, size: 0x8, addend: 0x0, symName: __ZNSt3__112__hash_tableIiNS_4hashIiEENS_8equal_toIiEENS_9allocatorIiEEE5clearEv, symObjAddr: 0x2449C, symBinAddr: 0x100026264, symSize: 0x1DC }
  - { offsetInCU: 0x266D4, offset: 0x266D4, size: 0x8, addend: 0x0, symName: __ZNSt3__112__hash_tableIiNS_4hashIiEENS_8equal_toIiEENS_9allocatorIiEEE4sizeB8ue170006Ev, symObjAddr: 0x24678, symBinAddr: 0x100026440, symSize: 0x28 }
  - { offsetInCU: 0x266FA, offset: 0x266FA, size: 0x8, addend: 0x0, symName: __ZNSt3__117__compressed_pairImNS_4hashIiEEE5firstB8ue170006Ev, symObjAddr: 0x246A0, symBinAddr: 0x100026468, symSize: 0x24 }
  - { offsetInCU: 0x26720, offset: 0x26720, size: 0x8, addend: 0x0, symName: __ZNSt3__112__hash_tableIiNS_4hashIiEENS_8equal_toIiEENS_9allocatorIiEEE15__insert_uniqueB8ue170006ERKi, symObjAddr: 0x246C4, symBinAddr: 0x10002648C, symSize: 0x238 }
  - { offsetInCU: 0x26757, offset: 0x26757, size: 0x8, addend: 0x0, symName: __ZNSt3__14pairINS_21__hash_const_iteratorIPNS_11__hash_nodeIiPvEEEEbEC1B8ue170006INS_15__hash_iteratorIS5_EEbEERKNS0_IT_T0_EE, symObjAddr: 0x248FC, symBinAddr: 0x1000266C4, symSize: 0x34 }
  - { offsetInCU: 0x267A1, offset: 0x267A1, size: 0x8, addend: 0x0, symName: __ZNSt3__112__hash_tableIiNS_4hashIiEENS_8equal_toIiEENS_9allocatorIiEEE25__emplace_unique_key_argsIiJRKiEEENS_4pairINS_15__hash_iteratorIPNS_11__hash_nodeIiPvEEEEbEERKT_DpOT0_, symObjAddr: 0x24930, symBinAddr: 0x1000266F8, symSize: 0xE6C }
  - { offsetInCU: 0x2688B, offset: 0x2688B, size: 0x8, addend: 0x0, symName: __ZNSt3__122__hash_key_value_typesIiE9__get_keyB8ue170006ERKi, symObjAddr: 0x2579C, symBinAddr: 0x100027564, symSize: 0x14 }
  - { offsetInCU: 0x268AE, offset: 0x268AE, size: 0x8, addend: 0x0, symName: __ZNSt3__112__hash_tableIiNS_4hashIiEENS_8equal_toIiEENS_9allocatorIiEEE21__construct_node_hashIRKiJEEENS_10unique_ptrINS_11__hash_nodeIiPvEENS_22__hash_node_destructorINS5_ISE_EEEEEEmOT_DpOT0_, symObjAddr: 0x257B0, symBinAddr: 0x100027578, symSize: 0x424 }
  - { offsetInCU: 0x26926, offset: 0x26926, size: 0x8, addend: 0x0, symName: __ZNSt3__112__hash_tableIiNS_4hashIiEENS_8equal_toIiEENS_9allocatorIiEEE15max_load_factorB8ue170006Ev, symObjAddr: 0x25BD4, symBinAddr: 0x10002799C, symSize: 0x28 }
  - { offsetInCU: 0x2694C, offset: 0x2694C, size: 0x8, addend: 0x0, symName: __ZNSt3__112__hash_tableIiNS_4hashIiEENS_8equal_toIiEENS_9allocatorIiEEE15__rehash_uniqueB8ue170006Em, symObjAddr: 0x25BFC, symBinAddr: 0x1000279C4, symSize: 0x2C }
  - { offsetInCU: 0x26981, offset: 0x26981, size: 0x8, addend: 0x0, symName: __Z4ceilB8ue170006f, symObjAddr: 0x25CA4, symBinAddr: 0x100027A6C, symSize: 0x18 }
  - { offsetInCU: 0x269B0, offset: 0x269B0, size: 0x8, addend: 0x0, symName: __ZNSt3__116__hash_node_baseIPNS_11__hash_nodeIiPvEEE5__ptrB8ue170006Ev, symObjAddr: 0x25CBC, symBinAddr: 0x100027A84, symSize: 0x24 }
  - { offsetInCU: 0x269D6, offset: 0x269D6, size: 0x8, addend: 0x0, symName: __ZNKSt3__110unique_ptrINS_11__hash_nodeIiPvEENS_22__hash_node_destructorINS_9allocatorIS3_EEEEEptB8ue170006Ev, symObjAddr: 0x25CE0, symBinAddr: 0x100027AA8, symSize: 0x6C }
  - { offsetInCU: 0x269FC, offset: 0x269FC, size: 0x8, addend: 0x0, symName: __ZNKSt3__110unique_ptrINS_11__hash_nodeIiPvEENS_22__hash_node_destructorINS_9allocatorIS3_EEEEE3getB8ue170006Ev, symObjAddr: 0x25D4C, symBinAddr: 0x100027B14, symSize: 0x6C }
  - { offsetInCU: 0x26A22, offset: 0x26A22, size: 0x8, addend: 0x0, symName: __ZNSt3__110unique_ptrINS_11__hash_nodeIiPvEENS_22__hash_node_destructorINS_9allocatorIS3_EEEEE7releaseB8ue170006Ev, symObjAddr: 0x25DB8, symBinAddr: 0x100027B80, symSize: 0xB8 }
  - { offsetInCU: 0x26A57, offset: 0x26A57, size: 0x8, addend: 0x0, symName: __ZNSt3__110unique_ptrINS_11__hash_nodeIiPvEENS_22__hash_node_destructorINS_9allocatorIS3_EEEEED1B8ue170006Ev, symObjAddr: 0x25E70, symBinAddr: 0x100027C38, symSize: 0x2C }
  - { offsetInCU: 0x26A81, offset: 0x26A81, size: 0x8, addend: 0x0, symName: __ZNSt3__14pairINS_15__hash_iteratorIPNS_11__hash_nodeIiPvEEEEbEC1B8ue170006ERKS6_RKb, symObjAddr: 0x25E9C, symBinAddr: 0x100027C64, symSize: 0x3C }
  - { offsetInCU: 0x26AC7, offset: 0x26AC7, size: 0x8, addend: 0x0, symName: __ZNSt3__116allocator_traitsINS_9allocatorINS_11__hash_nodeIiPvEEEEE8allocateB8ue170006ERS5_m, symObjAddr: 0x25ED8, symBinAddr: 0x100027CA0, symSize: 0x2C }
  - { offsetInCU: 0x26AFA, offset: 0x26AFA, size: 0x8, addend: 0x0, symName: __ZNSt3__122__hash_node_destructorINS_9allocatorINS_11__hash_nodeIiPvEEEEEC1B8ue170006ERS5_b, symObjAddr: 0x25F04, symBinAddr: 0x100027CCC, symSize: 0x48 }
  - { offsetInCU: 0x26B48, offset: 0x26B48, size: 0x8, addend: 0x0, symName: __ZNSt3__110unique_ptrINS_11__hash_nodeIiPvEENS_22__hash_node_destructorINS_9allocatorIS3_EEEEEC1B8ue170006ILb1EvEEPS3_NS_16__dependent_typeINS_27__unique_ptr_deleter_sfinaeIS7_EEXT_EE20__good_rval_ref_typeE, symObjAddr: 0x25F4C, symBinAddr: 0x100027D14, symSize: 0x3C }
  - { offsetInCU: 0x26B99, offset: 0x26B99, size: 0x8, addend: 0x0, symName: __ZNSt3__116allocator_traitsINS_9allocatorINS_11__hash_nodeIiPvEEEEE9constructB8ue170006IiJRKiEvEEvRS5_PT_DpOT0_, symObjAddr: 0x25F88, symBinAddr: 0x100027D50, symSize: 0x34 }
  - { offsetInCU: 0x26BF0, offset: 0x26BF0, size: 0x8, addend: 0x0, symName: __ZNSt3__110unique_ptrINS_11__hash_nodeIiPvEENS_22__hash_node_destructorINS_9allocatorIS3_EEEEE11get_deleterB8ue170006Ev, symObjAddr: 0x25FBC, symBinAddr: 0x100027D84, symSize: 0x24 }
  - { offsetInCU: 0x26C16, offset: 0x26C16, size: 0x8, addend: 0x0, symName: __ZNSt3__19allocatorINS_11__hash_nodeIiPvEEE8allocateB8ue170006Em, symObjAddr: 0x25FE0, symBinAddr: 0x100027DA8, symSize: 0x90 }
  - { offsetInCU: 0x26C54, offset: 0x26C54, size: 0x8, addend: 0x0, symName: __ZNSt3__116allocator_traitsINS_9allocatorINS_11__hash_nodeIiPvEEEEE8max_sizeB8ue170006IS5_vEEmRKS5_, symObjAddr: 0x26070, symBinAddr: 0x100027E38, symSize: 0x24 }
  - { offsetInCU: 0x26C82, offset: 0x26C82, size: 0x8, addend: 0x0, symName: __ZNKSt3__19allocatorINS_11__hash_nodeIiPvEEE8max_sizeB8ue170006Ev, symObjAddr: 0x26094, symBinAddr: 0x100027E5C, symSize: 0x18 }
  - { offsetInCU: 0x26CA8, offset: 0x26CA8, size: 0x8, addend: 0x0, symName: __ZNSt3__122__hash_node_destructorINS_9allocatorINS_11__hash_nodeIiPvEEEEEC2B8ue170006ERS5_b, symObjAddr: 0x260AC, symBinAddr: 0x100027E74, symSize: 0xF0 }
  - { offsetInCU: 0x26CF0, offset: 0x26CF0, size: 0x8, addend: 0x0, symName: __ZNSt3__110unique_ptrINS_11__hash_nodeIiPvEENS_22__hash_node_destructorINS_9allocatorIS3_EEEEEC2B8ue170006ILb1EvEEPS3_NS_16__dependent_typeINS_27__unique_ptr_deleter_sfinaeIS7_EEXT_EE20__good_rval_ref_typeE, symObjAddr: 0x2619C, symBinAddr: 0x100027F64, symSize: 0x230 }
  - { offsetInCU: 0x26D47, offset: 0x26D47, size: 0x8, addend: 0x0, symName: __ZNSt3__117__compressed_pairIPNS_11__hash_nodeIiPvEENS_22__hash_node_destructorINS_9allocatorIS3_EEEEEC1B8ue170006IRS4_S8_EEOT_OT0_, symObjAddr: 0x263CC, symBinAddr: 0x100028194, symSize: 0x3C }
  - { offsetInCU: 0x26D9F, offset: 0x26D9F, size: 0x8, addend: 0x0, symName: __ZNSt3__117__compressed_pairIPNS_11__hash_nodeIiPvEENS_22__hash_node_destructorINS_9allocatorIS3_EEEEEC2B8ue170006IRS4_S8_EEOT_OT0_, symObjAddr: 0x26408, symBinAddr: 0x1000281D0, symSize: 0x48 }
  - { offsetInCU: 0x26DF7, offset: 0x26DF7, size: 0x8, addend: 0x0, symName: __ZNSt3__122__compressed_pair_elemIPNS_11__hash_nodeIiPvEELi0ELb0EEC2B8ue170006IRS4_vEEOT_, symObjAddr: 0x26450, symBinAddr: 0x100028218, symSize: 0xB0 }
  - { offsetInCU: 0x26E39, offset: 0x26E39, size: 0x8, addend: 0x0, symName: __ZNSt3__122__compressed_pair_elemINS_22__hash_node_destructorINS_9allocatorINS_11__hash_nodeIiPvEEEEEELi1ELb0EEC2B8ue170006IS7_vEEOT_, symObjAddr: 0x26500, symBinAddr: 0x1000282C8, symSize: 0x38 }
  - { offsetInCU: 0x26E7B, offset: 0x26E7B, size: 0x8, addend: 0x0, symName: __ZNSt3__19allocatorINS_11__hash_nodeIiPvEEE9constructB8ue170006IiJRKiEEEvPT_DpOT0_, symObjAddr: 0x26538, symBinAddr: 0x100028300, symSize: 0x104 }
  - { offsetInCU: 0x26ED1, offset: 0x26ED1, size: 0x8, addend: 0x0, symName: __ZNSt3__117__compressed_pairIPNS_11__hash_nodeIiPvEENS_22__hash_node_destructorINS_9allocatorIS3_EEEEE6secondB8ue170006Ev, symObjAddr: 0x2663C, symBinAddr: 0x100028404, symSize: 0x28 }
  - { offsetInCU: 0x26EF7, offset: 0x26EF7, size: 0x8, addend: 0x0, symName: __ZNSt3__122__compressed_pair_elemINS_22__hash_node_destructorINS_9allocatorINS_11__hash_nodeIiPvEEEEEELi1ELb0EE5__getB8ue170006Ev, symObjAddr: 0x26664, symBinAddr: 0x10002842C, symSize: 0x14 }
  - { offsetInCU: 0x26F1D, offset: 0x26F1D, size: 0x8, addend: 0x0, symName: __ZNSt3__117__compressed_pairIfNS_8equal_toIiEEE5firstB8ue170006Ev, symObjAddr: 0x26678, symBinAddr: 0x100028440, symSize: 0x24 }
  - { offsetInCU: 0x26F43, offset: 0x26F43, size: 0x8, addend: 0x0, symName: __ZNSt3__122__compressed_pair_elemIfLi0ELb0EE5__getB8ue170006Ev, symObjAddr: 0x2669C, symBinAddr: 0x100028464, symSize: 0x14 }
  - { offsetInCU: 0x26F69, offset: 0x26F69, size: 0x8, addend: 0x0, symName: __ZNSt3__112__hash_tableIiNS_4hashIiEENS_8equal_toIiEENS_9allocatorIiEEE8__rehashILb1EEEvm, symObjAddr: 0x266B0, symBinAddr: 0x100028478, symSize: 0x784 }
  - { offsetInCU: 0x26FBF, offset: 0x26FBF, size: 0x8, addend: 0x0, symName: __ZNSt3__112__hash_tableIiNS_4hashIiEENS_8equal_toIiEENS_9allocatorIiEEE11__do_rehashILb1EEEvm, symObjAddr: 0x26E34, symBinAddr: 0x100028BFC, symSize: 0x5BC }
  - { offsetInCU: 0x270A4, offset: 0x270A4, size: 0x8, addend: 0x0, symName: __ZNSt3__110unique_ptrIA_PNS_16__hash_node_baseIPNS_11__hash_nodeIiPvEEEENS_25__bucket_list_deallocatorINS_9allocatorIS7_EEEEE11get_deleterB8ue170006Ev, symObjAddr: 0x2745C, symBinAddr: 0x100029224, symSize: 0x24 }
  - { offsetInCU: 0x270CA, offset: 0x270CA, size: 0x8, addend: 0x0, symName: __ZNSt3__110unique_ptrIA_PNS_16__hash_node_baseIPNS_11__hash_nodeIiPvEEEENS_25__bucket_list_deallocatorINS_9allocatorIS7_EEEEE5resetB8ue170006IPS7_EENS_9enable_ifIXsr28_CheckArrayPointerConversionIT_EE5valueEvE4typeESH_, symObjAddr: 0x27480, symBinAddr: 0x100029248, symSize: 0xEC }
  - { offsetInCU: 0x27117, offset: 0x27117, size: 0x8, addend: 0x0, symName: __ZNSt3__116allocator_traitsINS_9allocatorIPNS_16__hash_node_baseIPNS_11__hash_nodeIiPvEEEEEEE8allocateB8ue170006ERS9_m, symObjAddr: 0x2756C, symBinAddr: 0x100029334, symSize: 0x2C }
  - { offsetInCU: 0x2714A, offset: 0x2714A, size: 0x8, addend: 0x0, symName: __ZNSt3__19allocatorIPNS_16__hash_node_baseIPNS_11__hash_nodeIiPvEEEEE8allocateB8ue170006Em, symObjAddr: 0x27598, symBinAddr: 0x100029360, symSize: 0x88 }
  - { offsetInCU: 0x27188, offset: 0x27188, size: 0x8, addend: 0x0, symName: __ZNSt3__116allocator_traitsINS_9allocatorIPNS_16__hash_node_baseIPNS_11__hash_nodeIiPvEEEEEEE8max_sizeB8ue170006IS9_vEEmRKS9_, symObjAddr: 0x27620, symBinAddr: 0x1000293E8, symSize: 0x24 }
  - { offsetInCU: 0x271B6, offset: 0x271B6, size: 0x8, addend: 0x0, symName: __ZNKSt3__19allocatorIPNS_16__hash_node_baseIPNS_11__hash_nodeIiPvEEEEE8max_sizeB8ue170006Ev, symObjAddr: 0x27644, symBinAddr: 0x10002940C, symSize: 0x14 }
  - { offsetInCU: 0x271E6, offset: 0x271E6, size: 0x8, addend: 0x0, symName: __ZNKSt3__16__lessIvvEclB8ue170006ImmEEbRKT_RKT0_, symObjAddr: 0x2785C, symBinAddr: 0x100029624, symSize: 0xBC }
  - { offsetInCU: 0x2723A, offset: 0x2723A, size: 0x8, addend: 0x0, symName: __ZNKSt3__117__compressed_pairIPNS_11__hash_nodeIiPvEENS_22__hash_node_destructorINS_9allocatorIS3_EEEEE5firstB8ue170006Ev, symObjAddr: 0x27918, symBinAddr: 0x1000296E0, symSize: 0x24 }
  - { offsetInCU: 0x27260, offset: 0x27260, size: 0x8, addend: 0x0, symName: __ZNKSt3__122__compressed_pair_elemIPNS_11__hash_nodeIiPvEELi0ELb0EE5__getB8ue170006Ev, symObjAddr: 0x2793C, symBinAddr: 0x100029704, symSize: 0x14 }
  - { offsetInCU: 0x27286, offset: 0x27286, size: 0x8, addend: 0x0, symName: __ZNSt3__117__compressed_pairIPNS_11__hash_nodeIiPvEENS_22__hash_node_destructorINS_9allocatorIS3_EEEEE5firstB8ue170006Ev, symObjAddr: 0x27950, symBinAddr: 0x100029718, symSize: 0x24 }
  - { offsetInCU: 0x272AC, offset: 0x272AC, size: 0x8, addend: 0x0, symName: __ZNSt3__122__compressed_pair_elemIPNS_11__hash_nodeIiPvEELi0ELb0EE5__getB8ue170006Ev, symObjAddr: 0x27974, symBinAddr: 0x10002973C, symSize: 0x14 }
  - { offsetInCU: 0x272D2, offset: 0x272D2, size: 0x8, addend: 0x0, symName: __ZNSt3__110unique_ptrINS_11__hash_nodeIiPvEENS_22__hash_node_destructorINS_9allocatorIS3_EEEEED2B8ue170006Ev, symObjAddr: 0x27988, symBinAddr: 0x100029750, symSize: 0x30 }
  - { offsetInCU: 0x272FC, offset: 0x272FC, size: 0x8, addend: 0x0, symName: __ZNSt3__110unique_ptrINS_11__hash_nodeIiPvEENS_22__hash_node_destructorINS_9allocatorIS3_EEEEE5resetB8ue170006EPS3_, symObjAddr: 0x279B8, symBinAddr: 0x100029780, symSize: 0xEC }
  - { offsetInCU: 0x27340, offset: 0x27340, size: 0x8, addend: 0x0, symName: __ZNSt3__122__hash_node_destructorINS_9allocatorINS_11__hash_nodeIiPvEEEEEclB8ue170006EPS4_, symObjAddr: 0x27AA4, symBinAddr: 0x10002986C, symSize: 0x14C }
  - { offsetInCU: 0x27375, offset: 0x27375, size: 0x8, addend: 0x0, symName: __ZNSt3__14pairINS_15__hash_iteratorIPNS_11__hash_nodeIiPvEEEEbEC2B8ue170006ERKS6_RKb, symObjAddr: 0x27BF0, symBinAddr: 0x1000299B8, symSize: 0x120 }
  - { offsetInCU: 0x273BB, offset: 0x273BB, size: 0x8, addend: 0x0, symName: __ZNSt3__14pairINS_21__hash_const_iteratorIPNS_11__hash_nodeIiPvEEEEbEC2B8ue170006INS_15__hash_iteratorIS5_EEbEERKNS0_IT_T0_EE, symObjAddr: 0x27D10, symBinAddr: 0x100029AD8, symSize: 0x11C }
  - { offsetInCU: 0x27405, offset: 0x27405, size: 0x8, addend: 0x0, symName: __ZNSt3__111char_traitsIcE6lengthB8ue170006EPKc, symObjAddr: 0x28578, symBinAddr: 0x10002A340, symSize: 0x54 }
  - { offsetInCU: 0x27446, offset: 0x27446, size: 0x8, addend: 0x0, symName: __ZNKSt3__113basic_ostreamIcNS_11char_traitsIcEEE6sentrycvbB8ue170006Ev, symObjAddr: 0x285CC, symBinAddr: 0x10002A394, symSize: 0x88 }
  - { offsetInCU: 0x2746C, offset: 0x2746C, size: 0x8, addend: 0x0, symName: __ZNSt3__119ostreambuf_iteratorIcNS_11char_traitsIcEEEC1B8ue170006ERNS_13basic_ostreamIcS2_EE, symObjAddr: 0x28DC8, symBinAddr: 0x10002AB90, symSize: 0x34 }
  - { offsetInCU: 0x274A4, offset: 0x274A4, size: 0x8, addend: 0x0, symName: __ZNKSt3__18ios_base5flagsB8ue170006Ev, symObjAddr: 0x28DFC, symBinAddr: 0x10002ABC4, symSize: 0x8C }
  - { offsetInCU: 0x274CC, offset: 0x274CC, size: 0x8, addend: 0x0, symName: __ZNKSt3__19basic_iosIcNS_11char_traitsIcEEE4fillB8ue170006Ev, symObjAddr: 0x28E88, symBinAddr: 0x10002AC50, symSize: 0x198 }
  - { offsetInCU: 0x274F4, offset: 0x274F4, size: 0x8, addend: 0x0, symName: __ZNKSt3__119ostreambuf_iteratorIcNS_11char_traitsIcEEE6failedB8ue170006Ev, symObjAddr: 0x29020, symBinAddr: 0x10002ADE8, symSize: 0x6C }
  - { offsetInCU: 0x2751A, offset: 0x2751A, size: 0x8, addend: 0x0, symName: __ZNSt3__19basic_iosIcNS_11char_traitsIcEEE8setstateB8ue170006Ej, symObjAddr: 0x2908C, symBinAddr: 0x10002AE54, symSize: 0x2C }
  - { offsetInCU: 0x2754F, offset: 0x2754F, size: 0x8, addend: 0x0, symName: __ZNKSt3__18ios_base5widthB8ue170006Ev, symObjAddr: 0x290B8, symBinAddr: 0x10002AE80, symSize: 0x64 }
  - { offsetInCU: 0x27577, offset: 0x27577, size: 0x8, addend: 0x0, symName: __ZNSt3__115basic_streambufIcNS_11char_traitsIcEEE5sputnB8ue170006EPKcl, symObjAddr: 0x2911C, symBinAddr: 0x10002AEE4, symSize: 0xC8 }
  - { offsetInCU: 0x275B9, offset: 0x275B9, size: 0x8, addend: 0x0, symName: __ZNSt3__112basic_stringIcNS_11char_traitsIcEENS_9allocatorIcEEEC1B8ue170006Emc, symObjAddr: 0x291E4, symBinAddr: 0x10002AFAC, symSize: 0x3C }
  - { offsetInCU: 0x27601, offset: 0x27601, size: 0x8, addend: 0x0, symName: __ZNKSt3__112basic_stringIcNS_11char_traitsIcEENS_9allocatorIcEEE4dataB8ue170006Ev, symObjAddr: 0x29220, symBinAddr: 0x10002AFE8, symSize: 0x28 }
  - { offsetInCU: 0x27627, offset: 0x27627, size: 0x8, addend: 0x0, symName: __ZNSt3__18ios_base5widthB8ue170006El, symObjAddr: 0x29248, symBinAddr: 0x10002B010, symSize: 0xB8 }
  - { offsetInCU: 0x2766D, offset: 0x2766D, size: 0x8, addend: 0x0, symName: __ZNSt3__112basic_stringIcNS_11char_traitsIcEENS_9allocatorIcEEEC2B8ue170006Emc, symObjAddr: 0x29300, symBinAddr: 0x10002B0C8, symSize: 0x204 }
  - { offsetInCU: 0x276B8, offset: 0x276B8, size: 0x8, addend: 0x0, symName: __ZNSt3__117__compressed_pairINS_12basic_stringIcNS_11char_traitsIcEENS_9allocatorIcEEE5__repES5_EC1B8ue170006INS_18__default_init_tagESA_EEOT_OT0_, symObjAddr: 0x29504, symBinAddr: 0x10002B2CC, symSize: 0x3C }
  - { offsetInCU: 0x27710, offset: 0x27710, size: 0x8, addend: 0x0, symName: __ZNSt3__117__compressed_pairINS_12basic_stringIcNS_11char_traitsIcEENS_9allocatorIcEEE5__repES5_EC2B8ue170006INS_18__default_init_tagESA_EEOT_OT0_, symObjAddr: 0x29540, symBinAddr: 0x10002B308, symSize: 0x3C }
  - { offsetInCU: 0x27768, offset: 0x27768, size: 0x8, addend: 0x0, symName: __ZNSt3__122__compressed_pair_elemINS_12basic_stringIcNS_11char_traitsIcEENS_9allocatorIcEEE5__repELi0ELb0EEC2B8ue170006ENS_18__default_init_tagE, symObjAddr: 0x2957C, symBinAddr: 0x10002B344, symSize: 0x14 }
  - { offsetInCU: 0x2779C, offset: 0x2779C, size: 0x8, addend: 0x0, symName: __ZNSt3__122__compressed_pair_elemINS_9allocatorIcEELi1ELb1EEC2B8ue170006ENS_18__default_init_tagE, symObjAddr: 0x29590, symBinAddr: 0x10002B358, symSize: 0x2C }
  - { offsetInCU: 0x277D0, offset: 0x277D0, size: 0x8, addend: 0x0, symName: __ZNSt3__19allocatorIcEC2B8ue170006Ev, symObjAddr: 0x295BC, symBinAddr: 0x10002B384, symSize: 0x2C }
  - { offsetInCU: 0x277FA, offset: 0x277FA, size: 0x8, addend: 0x0, symName: __ZNSt3__116__non_trivial_ifILb1ENS_9allocatorIcEEEC2B8ue170006Ev, symObjAddr: 0x295E8, symBinAddr: 0x10002B3B0, symSize: 0x14 }
  - { offsetInCU: 0x27824, offset: 0x27824, size: 0x8, addend: 0x0, symName: __ZNKSt3__112basic_stringIcNS_11char_traitsIcEENS_9allocatorIcEEE13__get_pointerB8ue170006Ev, symObjAddr: 0x29610, symBinAddr: 0x10002B3D8, symSize: 0x54 }
  - { offsetInCU: 0x2784A, offset: 0x2784A, size: 0x8, addend: 0x0, symName: __ZNKSt3__112basic_stringIcNS_11char_traitsIcEENS_9allocatorIcEEE9__is_longB8ue170006Ev, symObjAddr: 0x29664, symBinAddr: 0x10002B42C, symSize: 0xE0 }
  - { offsetInCU: 0x27870, offset: 0x27870, size: 0x8, addend: 0x0, symName: __ZNKSt3__112basic_stringIcNS_11char_traitsIcEENS_9allocatorIcEEE18__get_long_pointerB8ue170006Ev, symObjAddr: 0x29744, symBinAddr: 0x10002B50C, symSize: 0x6C }
  - { offsetInCU: 0x27896, offset: 0x27896, size: 0x8, addend: 0x0, symName: __ZNKSt3__112basic_stringIcNS_11char_traitsIcEENS_9allocatorIcEEE19__get_short_pointerB8ue170006Ev, symObjAddr: 0x297B0, symBinAddr: 0x10002B578, symSize: 0x28 }
  - { offsetInCU: 0x278BC, offset: 0x278BC, size: 0x8, addend: 0x0, symName: __ZNKSt3__117__compressed_pairINS_12basic_stringIcNS_11char_traitsIcEENS_9allocatorIcEEE5__repES5_E5firstB8ue170006Ev, symObjAddr: 0x297D8, symBinAddr: 0x10002B5A0, symSize: 0x24 }
  - { offsetInCU: 0x278E2, offset: 0x278E2, size: 0x8, addend: 0x0, symName: __ZNKSt3__122__compressed_pair_elemINS_12basic_stringIcNS_11char_traitsIcEENS_9allocatorIcEEE5__repELi0ELb0EE5__getB8ue170006Ev, symObjAddr: 0x297FC, symBinAddr: 0x10002B5C4, symSize: 0x14 }
  - { offsetInCU: 0x27908, offset: 0x27908, size: 0x8, addend: 0x0, symName: __ZNSt3__114pointer_traitsIPKcE10pointer_toB8ue170006ERS1_, symObjAddr: 0x29810, symBinAddr: 0x10002B5D8, symSize: 0x14 }
  - { offsetInCU: 0x2792B, offset: 0x2792B, size: 0x8, addend: 0x0, symName: __ZNSt3__119ostreambuf_iteratorIcNS_11char_traitsIcEEEC2B8ue170006ERNS_13basic_ostreamIcS2_EE, symObjAddr: 0x29824, symBinAddr: 0x10002B5EC, symSize: 0x120 }
  - { offsetInCU: 0x27963, offset: 0x27963, size: 0x8, addend: 0x0, symName: __ZNSt3__111char_traitsIcE11eq_int_typeB8ue170006Eii, symObjAddr: 0x29944, symBinAddr: 0x10002B70C, symSize: 0x28 }
  - { offsetInCU: 0x27996, offset: 0x27996, size: 0x8, addend: 0x0, symName: __ZNKSt3__19basic_iosIcNS_11char_traitsIcEEE5widenB8ue170006Ec, symObjAddr: 0x2996C, symBinAddr: 0x10002B734, symSize: 0x2B8 }
  - { offsetInCU: 0x27A01, offset: 0x27A01, size: 0x8, addend: 0x0, symName: __ZNKSt3__15ctypeIcE5widenB8ue170006Ec, symObjAddr: 0x29C50, symBinAddr: 0x10002BA18, symSize: 0xBC }
  - { offsetInCU: 0x27A36, offset: 0x27A36, size: 0x8, addend: 0x0, symName: __ZNSt3__18ios_base8setstateB8ue170006Ej, symObjAddr: 0x29D0C, symBinAddr: 0x10002BAD4, symSize: 0x9C }
  - { offsetInCU: 0x27A6D, offset: 0x27A6D, size: 0x8, addend: 0x0, symName: __ZNSt3__13setIP5StateNS_4lessIS2_EENS_9allocatorIS2_EEEC2B8ue170006Ev, symObjAddr: 0x29DCC, symBinAddr: 0x10002BB94, symSize: 0x1D8 }
  - { offsetInCU: 0x27A98, offset: 0x27A98, size: 0x8, addend: 0x0, symName: __ZNSt3__16__treeIP5StateNS_4lessIS2_EENS_9allocatorIS2_EEEC1ERKS4_, symObjAddr: 0x29FA4, symBinAddr: 0x10002BD6C, symSize: 0x34 }
  - { offsetInCU: 0x27AD3, offset: 0x27AD3, size: 0x8, addend: 0x0, symName: __ZNSt3__16__treeIP5StateNS_4lessIS2_EENS_9allocatorIS2_EEEC2ERKS4_, symObjAddr: 0x29FD8, symBinAddr: 0x10002BDA0, symSize: 0x2B4 }
  - { offsetInCU: 0x27B10, offset: 0x27B10, size: 0x8, addend: 0x0, symName: __ZNSt3__117__compressed_pairINS_15__tree_end_nodeIPNS_16__tree_node_baseIPvEEEENS_9allocatorINS_11__tree_nodeIP5StateS3_EEEEEC1B8ue170006ILb1EvEEv, symObjAddr: 0x2A28C, symBinAddr: 0x10002C054, symSize: 0x2C }
  - { offsetInCU: 0x27B45, offset: 0x27B45, size: 0x8, addend: 0x0, symName: __ZNSt3__117__compressed_pairImNS_4lessIP5StateEEEC1B8ue170006IiRKS4_EEOT_OT0_, symObjAddr: 0x2A2B8, symBinAddr: 0x10002C080, symSize: 0x3C }
  - { offsetInCU: 0x27B9D, offset: 0x27B9D, size: 0x8, addend: 0x0, symName: __ZNSt3__117__compressed_pairINS_15__tree_end_nodeIPNS_16__tree_node_baseIPvEEEENS_9allocatorINS_11__tree_nodeIP5StateS3_EEEEEC2B8ue170006ILb1EvEEv, symObjAddr: 0x2A2F4, symBinAddr: 0x10002C0BC, symSize: 0x34 }
  - { offsetInCU: 0x27BD2, offset: 0x27BD2, size: 0x8, addend: 0x0, symName: __ZNSt3__122__compressed_pair_elemINS_9allocatorINS_11__tree_nodeIP5StatePvEEEELi1ELb1EEC2B8ue170006ENS_16__value_init_tagE, symObjAddr: 0x2A328, symBinAddr: 0x10002C0F0, symSize: 0x2C }
  - { offsetInCU: 0x27C06, offset: 0x27C06, size: 0x8, addend: 0x0, symName: __ZNSt3__19allocatorINS_11__tree_nodeIP5StatePvEEEC2B8ue170006Ev, symObjAddr: 0x2A354, symBinAddr: 0x10002C11C, symSize: 0x2C }
  - { offsetInCU: 0x27C30, offset: 0x27C30, size: 0x8, addend: 0x0, symName: __ZNSt3__116__non_trivial_ifILb1ENS_9allocatorINS_11__tree_nodeIP5StatePvEEEEEC2B8ue170006Ev, symObjAddr: 0x2A380, symBinAddr: 0x10002C148, symSize: 0x14 }
  - { offsetInCU: 0x27C5A, offset: 0x27C5A, size: 0x8, addend: 0x0, symName: __ZNSt3__117__compressed_pairImNS_4lessIP5StateEEEC2B8ue170006IiRKS4_EEOT_OT0_, symObjAddr: 0x2A394, symBinAddr: 0x10002C15C, symSize: 0x44 }
  - { offsetInCU: 0x27CB2, offset: 0x27CB2, size: 0x8, addend: 0x0, symName: __ZNSt3__122__compressed_pair_elemINS_4lessIP5StateEELi1ELb1EEC2B8ue170006IRKS4_vEEOT_, symObjAddr: 0x2A3D8, symBinAddr: 0x10002C1A0, symSize: 0x18 }
  - { offsetInCU: 0x27CF4, offset: 0x27CF4, size: 0x8, addend: 0x0, symName: __ZNSt3__13setIP5StateNS_4lessIS2_EENS_9allocatorIS2_EEED2B8ue170006Ev, symObjAddr: 0x2A3F0, symBinAddr: 0x10002C1B8, symSize: 0x2C }
  - { offsetInCU: 0x27D1E, offset: 0x27D1E, size: 0x8, addend: 0x0, symName: __ZNSt3__16__treeIP5StateNS_4lessIS2_EENS_9allocatorIS2_EEED1Ev, symObjAddr: 0x2A41C, symBinAddr: 0x10002C1E4, symSize: 0x2C }
  - { offsetInCU: 0x27D4A, offset: 0x27D4A, size: 0x8, addend: 0x0, symName: __ZNSt3__16__treeIP5StateNS_4lessIS2_EENS_9allocatorIS2_EEED2Ev, symObjAddr: 0x2A448, symBinAddr: 0x10002C210, symSize: 0x38 }
  - { offsetInCU: 0x27D76, offset: 0x27D76, size: 0x8, addend: 0x0, symName: __ZNSt3__16__treeIP5StateNS_4lessIS2_EENS_9allocatorIS2_EEE7destroyEPNS_11__tree_nodeIS2_PvEE, symObjAddr: 0x2A480, symBinAddr: 0x10002C248, symSize: 0x118 }
  - { offsetInCU: 0x27DCA, offset: 0x27DCA, size: 0x8, addend: 0x0, symName: __ZNSt3__16__treeIP5StateNS_4lessIS2_EENS_9allocatorIS2_EEE15__insert_uniqueB8ue170006ERKS2_, symObjAddr: 0x2A598, symBinAddr: 0x10002C360, symSize: 0x238 }
  - { offsetInCU: 0x27E01, offset: 0x27E01, size: 0x8, addend: 0x0, symName: __ZNSt3__14pairINS_21__tree_const_iteratorIP5StatePNS_11__tree_nodeIS3_PvEElEEbEC1B8ue170006INS_15__tree_iteratorIS3_S7_lEEbEERKNS0_IT_T0_EE, symObjAddr: 0x2A7D0, symBinAddr: 0x10002C598, symSize: 0x34 }
  - { offsetInCU: 0x27E4B, offset: 0x27E4B, size: 0x8, addend: 0x0, symName: __ZNSt3__16__treeIP5StateNS_4lessIS2_EENS_9allocatorIS2_EEE25__emplace_unique_key_argsIS2_JRKS2_EEENS_4pairINS_15__tree_iteratorIS2_PNS_11__tree_nodeIS2_PvEElEEbEERKT_DpOT0_, symObjAddr: 0x2A804, symBinAddr: 0x10002C5CC, symSize: 0x510 }
  - { offsetInCU: 0x27F07, offset: 0x27F07, size: 0x8, addend: 0x0, symName: __ZNSt3__14pairINS_21__tree_const_iteratorIP5StatePNS_11__tree_nodeIS3_PvEElEEbEC2B8ue170006INS_15__tree_iteratorIS3_S7_lEEbEERKNS0_IT_T0_EE, symObjAddr: 0x2AD14, symBinAddr: 0x10002CADC, symSize: 0x2E8 }
  - { offsetInCU: 0x27F53, offset: 0x27F53, size: 0x8, addend: 0x0, symName: __ZNSt3__16vectorI8FragmentNS_9allocatorIS1_EEEC2B8ue170006Ev, symObjAddr: 0x2AFFC, symBinAddr: 0x10002CDC4, symSize: 0x2D4 }
  - { offsetInCU: 0x27F84, offset: 0x27F84, size: 0x8, addend: 0x0, symName: __ZNSt3__117__compressed_pairIP8FragmentNS_9allocatorIS1_EEEC1B8ue170006IDnNS_18__default_init_tagEEEOT_OT0_, symObjAddr: 0x2B2D0, symBinAddr: 0x10002D098, symSize: 0x3C }
  - { offsetInCU: 0x27FDC, offset: 0x27FDC, size: 0x8, addend: 0x0, symName: __ZNSt3__117__compressed_pairIP8FragmentNS_9allocatorIS1_EEEC2B8ue170006IDnNS_18__default_init_tagEEEOT_OT0_, symObjAddr: 0x2B30C, symBinAddr: 0x10002D0D4, symSize: 0x40 }
  - { offsetInCU: 0x28034, offset: 0x28034, size: 0x8, addend: 0x0, symName: __ZNSt3__122__compressed_pair_elemIP8FragmentLi0ELb0EEC2B8ue170006IDnvEEOT_, symObjAddr: 0x2B34C, symBinAddr: 0x10002D114, symSize: 0x64 }
  - { offsetInCU: 0x28076, offset: 0x28076, size: 0x8, addend: 0x0, symName: __ZNSt3__122__compressed_pair_elemINS_9allocatorI8FragmentEELi1ELb1EEC2B8ue170006ENS_18__default_init_tagE, symObjAddr: 0x2B3B0, symBinAddr: 0x10002D178, symSize: 0x2C }
  - { offsetInCU: 0x280AA, offset: 0x280AA, size: 0x8, addend: 0x0, symName: __ZNSt3__19allocatorI8FragmentEC2B8ue170006Ev, symObjAddr: 0x2B3DC, symBinAddr: 0x10002D1A4, symSize: 0x2C }
  - { offsetInCU: 0x280D4, offset: 0x280D4, size: 0x8, addend: 0x0, symName: __ZNSt3__116__non_trivial_ifILb1ENS_9allocatorI8FragmentEEEC2B8ue170006Ev, symObjAddr: 0x2B408, symBinAddr: 0x10002D1D0, symSize: 0x14 }
  - { offsetInCU: 0x280FE, offset: 0x280FE, size: 0x8, addend: 0x0, symName: __ZNSt3__16vectorI8FragmentNS_9allocatorIS1_EEED2B8ue170006Ev, symObjAddr: 0x2B41C, symBinAddr: 0x10002D1E4, symSize: 0x1E0 }
  - { offsetInCU: 0x28129, offset: 0x28129, size: 0x8, addend: 0x0, symName: __ZNSt3__16vectorI8FragmentNS_9allocatorIS1_EEE16__destroy_vectorC1B8ue170006ERS4_, symObjAddr: 0x2B5FC, symBinAddr: 0x10002D3C4, symSize: 0x34 }
  - { offsetInCU: 0x28162, offset: 0x28162, size: 0x8, addend: 0x0, symName: __ZNSt3__16vectorI8FragmentNS_9allocatorIS1_EEE16__destroy_vectorclB8ue170006Ev, symObjAddr: 0x2B630, symBinAddr: 0x10002D3F8, symSize: 0x228 }
  - { offsetInCU: 0x28188, offset: 0x28188, size: 0x8, addend: 0x0, symName: __ZNSt3__16vectorI8FragmentNS_9allocatorIS1_EEE16__destroy_vectorC2B8ue170006ERS4_, symObjAddr: 0x2B858, symBinAddr: 0x10002D620, symSize: 0x70 }
  - { offsetInCU: 0x281C1, offset: 0x281C1, size: 0x8, addend: 0x0, symName: __ZNSt3__16vectorI8FragmentNS_9allocatorIS1_EEE7__clearB8ue170006Ev, symObjAddr: 0x2B8C8, symBinAddr: 0x10002D690, symSize: 0x64 }
  - { offsetInCU: 0x281E7, offset: 0x281E7, size: 0x8, addend: 0x0, symName: __ZNKSt3__16vectorI8FragmentNS_9allocatorIS1_EEE17__annotate_deleteB8ue170006Ev, symObjAddr: 0x2B92C, symBinAddr: 0x10002D6F4, symSize: 0xE0 }
  - { offsetInCU: 0x2820D, offset: 0x2820D, size: 0x8, addend: 0x0, symName: __ZNSt3__116allocator_traitsINS_9allocatorI8FragmentEEE10deallocateB8ue170006ERS3_PS2_m, symObjAddr: 0x2BA0C, symBinAddr: 0x10002D7D4, symSize: 0x34 }
  - { offsetInCU: 0x2824F, offset: 0x2824F, size: 0x8, addend: 0x0, symName: __ZNSt3__16vectorI8FragmentNS_9allocatorIS1_EEE7__allocB8ue170006Ev, symObjAddr: 0x2BA40, symBinAddr: 0x10002D808, symSize: 0x28 }
  - { offsetInCU: 0x28275, offset: 0x28275, size: 0x8, addend: 0x0, symName: __ZNKSt3__16vectorI8FragmentNS_9allocatorIS1_EEE8capacityB8ue170006Ev, symObjAddr: 0x2BA68, symBinAddr: 0x10002D830, symSize: 0xBC }
  - { offsetInCU: 0x2829B, offset: 0x2829B, size: 0x8, addend: 0x0, symName: __ZNSt3__16vectorI8FragmentNS_9allocatorIS1_EEE22__base_destruct_at_endB8ue170006EPS1_, symObjAddr: 0x2BB24, symBinAddr: 0x10002D8EC, symSize: 0x128 }
  - { offsetInCU: 0x282DF, offset: 0x282DF, size: 0x8, addend: 0x0, symName: __ZNSt3__116allocator_traitsINS_9allocatorI8FragmentEEE7destroyB8ue170006IS2_vEEvRS3_PT_, symObjAddr: 0x2BC4C, symBinAddr: 0x10002DA14, symSize: 0x2C }
  - { offsetInCU: 0x2831C, offset: 0x2831C, size: 0x8, addend: 0x0, symName: __ZNSt3__19allocatorI8FragmentE7destroyB8ue170006EPS1_, symObjAddr: 0x2BC8C, symBinAddr: 0x10002DA54, symSize: 0x14 }
  - { offsetInCU: 0x28350, offset: 0x28350, size: 0x8, addend: 0x0, symName: __ZNKSt3__16vectorI8FragmentNS_9allocatorIS1_EEE31__annotate_contiguous_containerEPKvS6_S6_S6_, symObjAddr: 0x2BCA0, symBinAddr: 0x10002DA68, symSize: 0x64 }
  - { offsetInCU: 0x283B2, offset: 0x283B2, size: 0x8, addend: 0x0, symName: __ZNKSt3__16vectorI8FragmentNS_9allocatorIS1_EEE4dataB8ue170006Ev, symObjAddr: 0x2BD04, symBinAddr: 0x10002DACC, symSize: 0x64 }
  - { offsetInCU: 0x283D8, offset: 0x283D8, size: 0x8, addend: 0x0, symName: __ZNSt3__19allocatorI8FragmentE10deallocateB8ue170006EPS1_m, symObjAddr: 0x2BD68, symBinAddr: 0x10002DB30, symSize: 0x7C }
  - { offsetInCU: 0x2841A, offset: 0x2841A, size: 0x8, addend: 0x0, symName: __ZNSt3__117__compressed_pairIP8FragmentNS_9allocatorIS1_EEE6secondB8ue170006Ev, symObjAddr: 0x2BDE4, symBinAddr: 0x10002DBAC, symSize: 0x24 }
  - { offsetInCU: 0x28440, offset: 0x28440, size: 0x8, addend: 0x0, symName: __ZNSt3__122__compressed_pair_elemINS_9allocatorI8FragmentEELi1ELb1EE5__getB8ue170006Ev, symObjAddr: 0x2BE08, symBinAddr: 0x10002DBD0, symSize: 0x14 }
  - { offsetInCU: 0x28466, offset: 0x28466, size: 0x8, addend: 0x0, symName: __ZNKSt3__16vectorI8FragmentNS_9allocatorIS1_EEE9__end_capB8ue170006Ev, symObjAddr: 0x2BE1C, symBinAddr: 0x10002DBE4, symSize: 0x28 }
  - { offsetInCU: 0x2848C, offset: 0x2848C, size: 0x8, addend: 0x0, symName: __ZNKSt3__117__compressed_pairIP8FragmentNS_9allocatorIS1_EEE5firstB8ue170006Ev, symObjAddr: 0x2BE44, symBinAddr: 0x10002DC0C, symSize: 0x24 }
  - { offsetInCU: 0x284B2, offset: 0x284B2, size: 0x8, addend: 0x0, symName: __ZNKSt3__122__compressed_pair_elemIP8FragmentLi0ELb0EE5__getB8ue170006Ev, symObjAddr: 0x2BE68, symBinAddr: 0x10002DC30, symSize: 0x14 }
  - { offsetInCU: 0x284D8, offset: 0x284D8, size: 0x8, addend: 0x0, symName: __ZNKSt3__112basic_stringIcNS_11char_traitsIcEENS_9allocatorIcEEE15__get_long_sizeB8ue170006Ev, symObjAddr: 0x2BE7C, symBinAddr: 0x10002DC44, symSize: 0x70 }
  - { offsetInCU: 0x284FE, offset: 0x284FE, size: 0x8, addend: 0x0, symName: __ZNKSt3__112basic_stringIcNS_11char_traitsIcEENS_9allocatorIcEEE16__get_short_sizeB8ue170006Ev, symObjAddr: 0x2BEEC, symBinAddr: 0x10002DCB4, symSize: 0xA0 }
  - { offsetInCU: 0x28524, offset: 0x28524, size: 0x8, addend: 0x0, symName: __ZNSt3__112basic_stringIcNS_11char_traitsIcEENS_9allocatorIcEEE13__get_pointerB8ue170006Ev, symObjAddr: 0x2BF8C, symBinAddr: 0x10002DD54, symSize: 0x54 }
  - { offsetInCU: 0x2854A, offset: 0x2854A, size: 0x8, addend: 0x0, symName: __ZNSt3__112basic_stringIcNS_11char_traitsIcEENS_9allocatorIcEEE18__get_long_pointerB8ue170006Ev, symObjAddr: 0x2BFE0, symBinAddr: 0x10002DDA8, symSize: 0x6C }
  - { offsetInCU: 0x28570, offset: 0x28570, size: 0x8, addend: 0x0, symName: __ZNSt3__112basic_stringIcNS_11char_traitsIcEENS_9allocatorIcEEE19__get_short_pointerB8ue170006Ev, symObjAddr: 0x2C04C, symBinAddr: 0x10002DE14, symSize: 0x28 }
  - { offsetInCU: 0x28596, offset: 0x28596, size: 0x8, addend: 0x0, symName: __ZNSt3__117__compressed_pairINS_12basic_stringIcNS_11char_traitsIcEENS_9allocatorIcEEE5__repES5_E5firstB8ue170006Ev, symObjAddr: 0x2C074, symBinAddr: 0x10002DE3C, symSize: 0x24 }
  - { offsetInCU: 0x285BC, offset: 0x285BC, size: 0x8, addend: 0x0, symName: __ZNSt3__122__compressed_pair_elemINS_12basic_stringIcNS_11char_traitsIcEENS_9allocatorIcEEE5__repELi0ELb0EE5__getB8ue170006Ev, symObjAddr: 0x2C098, symBinAddr: 0x10002DE60, symSize: 0x14 }
  - { offsetInCU: 0x285E2, offset: 0x285E2, size: 0x8, addend: 0x0, symName: __ZNSt3__114pointer_traitsIPcE10pointer_toB8ue170006ERc, symObjAddr: 0x2C0AC, symBinAddr: 0x10002DE74, symSize: 0x14 }
  - { offsetInCU: 0x28605, offset: 0x28605, size: 0x8, addend: 0x0, symName: __ZNSt3__16vectorI8FragmentNS_9allocatorIS1_EEE17__destruct_at_endB8ue170006EPS1_, symObjAddr: 0x2C0C0, symBinAddr: 0x10002DE88, symSize: 0x4C }
  - { offsetInCU: 0x28649, offset: 0x28649, size: 0x8, addend: 0x0, symName: __ZNKSt3__16vectorI8FragmentNS_9allocatorIS1_EEE17__annotate_shrinkB8ue170006Em, symObjAddr: 0x2C10C, symBinAddr: 0x10002DED4, symSize: 0xDC }
  - { offsetInCU: 0x2867E, offset: 0x2867E, size: 0x8, addend: 0x0, symName: __ZNSt3__16vectorI8FragmentNS_9allocatorIS1_EEE9__end_capB8ue170006Ev, symObjAddr: 0x2C1E8, symBinAddr: 0x10002DFB0, symSize: 0x28 }
  - { offsetInCU: 0x286A4, offset: 0x286A4, size: 0x8, addend: 0x0, symName: __ZNSt3__16vectorI8FragmentNS_9allocatorIS1_EEE22__construct_one_at_endB8ue170006IJRKS1_EEEvDpOT_, symObjAddr: 0x2C210, symBinAddr: 0x10002DFD8, symSize: 0x380 }
  - { offsetInCU: 0x286F9, offset: 0x286F9, size: 0x8, addend: 0x0, symName: __ZNSt3__16vectorI8FragmentNS_9allocatorIS1_EEE21__push_back_slow_pathIRKS1_EEvOT_, symObjAddr: 0x2C590, symBinAddr: 0x10002E358, symSize: 0x3D4 }
  - { offsetInCU: 0x2875E, offset: 0x2875E, size: 0x8, addend: 0x0, symName: __ZNSt3__117__compressed_pairIP8FragmentNS_9allocatorIS1_EEE5firstB8ue170006Ev, symObjAddr: 0x2C964, symBinAddr: 0x10002E72C, symSize: 0x24 }
  - { offsetInCU: 0x28784, offset: 0x28784, size: 0x8, addend: 0x0, symName: __ZNSt3__122__compressed_pair_elemIP8FragmentLi0ELb0EE5__getB8ue170006Ev, symObjAddr: 0x2C988, symBinAddr: 0x10002E750, symSize: 0x14 }
  - { offsetInCU: 0x287C3, offset: 0x287C3, size: 0x8, addend: 0x0, symName: __ZNSt3__16vectorI8FragmentNS_9allocatorIS1_EEE21_ConstructTransactionC1B8ue170006ERS4_m, symObjAddr: 0x2C99C, symBinAddr: 0x10002E764, symSize: 0x3C }
  - { offsetInCU: 0x2880B, offset: 0x2880B, size: 0x8, addend: 0x0, symName: __ZNSt3__116allocator_traitsINS_9allocatorI8FragmentEEE9constructB8ue170006IS2_JRKS2_EvEEvRS3_PT_DpOT0_, symObjAddr: 0x2C9D8, symBinAddr: 0x10002E7A0, symSize: 0x34 }
  - { offsetInCU: 0x28862, offset: 0x28862, size: 0x8, addend: 0x0, symName: __ZNSt3__16vectorI8FragmentNS_9allocatorIS1_EEE21_ConstructTransactionD1B8ue170006Ev, symObjAddr: 0x2CA0C, symBinAddr: 0x10002E7D4, symSize: 0x2C }
  - { offsetInCU: 0x2888C, offset: 0x2888C, size: 0x8, addend: 0x0, symName: __ZNSt3__16vectorI8FragmentNS_9allocatorIS1_EEE21_ConstructTransactionC2B8ue170006ERS4_m, symObjAddr: 0x2CA38, symBinAddr: 0x10002E800, symSize: 0x1D0 }
  - { offsetInCU: 0x288D4, offset: 0x288D4, size: 0x8, addend: 0x0, symName: __ZNKSt3__16vectorI8FragmentNS_9allocatorIS1_EEE19__annotate_increaseB8ue170006Em, symObjAddr: 0x2CC08, symBinAddr: 0x10002E9D0, symSize: 0xEC }
  - { offsetInCU: 0x28909, offset: 0x28909, size: 0x8, addend: 0x0, symName: __ZNSt3__19allocatorI8FragmentE9constructB8ue170006IS1_JRKS1_EEEvPT_DpOT0_, symObjAddr: 0x2CCF4, symBinAddr: 0x10002EABC, symSize: 0x34 }
  - { offsetInCU: 0x2895F, offset: 0x2895F, size: 0x8, addend: 0x0, symName: __ZNSt3__16vectorI8FragmentNS_9allocatorIS1_EEE21_ConstructTransactionD2B8ue170006Ev, symObjAddr: 0x2CD28, symBinAddr: 0x10002EAF0, symSize: 0x278 }
  - { offsetInCU: 0x28989, offset: 0x28989, size: 0x8, addend: 0x0, symName: __ZNKSt3__16vectorI8FragmentNS_9allocatorIS1_EEE11__recommendB8ue170006Em, symObjAddr: 0x2CFA0, symBinAddr: 0x10002ED68, symSize: 0x384 }
  - { offsetInCU: 0x289E5, offset: 0x289E5, size: 0x8, addend: 0x0, symName: __ZNSt3__114__split_bufferI8FragmentRNS_9allocatorIS1_EEEC1EmmS4_, symObjAddr: 0x2D324, symBinAddr: 0x10002F0EC, symSize: 0x44 }
  - { offsetInCU: 0x28A3B, offset: 0x28A3B, size: 0x8, addend: 0x0, symName: __ZNSt3__114__split_bufferI8FragmentRNS_9allocatorIS1_EEED1Ev, symObjAddr: 0x2D8D4, symBinAddr: 0x10002F69C, symSize: 0x2C }
  - { offsetInCU: 0x28A67, offset: 0x28A67, size: 0x8, addend: 0x0, symName: __ZNKSt3__16vectorI8FragmentNS_9allocatorIS1_EEE8max_sizeEv, symObjAddr: 0x2D900, symBinAddr: 0x10002F6C8, symSize: 0x328 }
  - { offsetInCU: 0x28A90, offset: 0x28A90, size: 0x8, addend: 0x0, symName: __ZNKSt3__16vectorI8FragmentNS_9allocatorIS1_EEE20__throw_length_errorB8ue170006Ev, symObjAddr: 0x2DC28, symBinAddr: 0x10002F9F0, symSize: 0x20 }
  - { offsetInCU: 0x28AC0, offset: 0x28AC0, size: 0x8, addend: 0x0, symName: __ZNSt3__116allocator_traitsINS_9allocatorI8FragmentEEE8max_sizeB8ue170006IS3_vEEmRKS3_, symObjAddr: 0x2DC74, symBinAddr: 0x10002FA3C, symSize: 0x24 }
  - { offsetInCU: 0x28AEE, offset: 0x28AEE, size: 0x8, addend: 0x0, symName: __ZNKSt3__16vectorI8FragmentNS_9allocatorIS1_EEE7__allocB8ue170006Ev, symObjAddr: 0x2DC98, symBinAddr: 0x10002FA60, symSize: 0x28 }
  - { offsetInCU: 0x28B14, offset: 0x28B14, size: 0x8, addend: 0x0, symName: __ZNSt3__114numeric_limitsIlE3maxB8ue170006Ev, symObjAddr: 0x2DCC0, symBinAddr: 0x10002FA88, symSize: 0x14 }
  - { offsetInCU: 0x28B28, offset: 0x28B28, size: 0x8, addend: 0x0, symName: __ZNKSt3__19allocatorI8FragmentE8max_sizeB8ue170006Ev, symObjAddr: 0x2DEBC, symBinAddr: 0x10002FC84, symSize: 0x14 }
  - { offsetInCU: 0x28B4E, offset: 0x28B4E, size: 0x8, addend: 0x0, symName: __ZNKSt3__117__compressed_pairIP8FragmentNS_9allocatorIS1_EEE6secondB8ue170006Ev, symObjAddr: 0x2DED0, symBinAddr: 0x10002FC98, symSize: 0x24 }
  - { offsetInCU: 0x28B74, offset: 0x28B74, size: 0x8, addend: 0x0, symName: __ZNKSt3__122__compressed_pair_elemINS_9allocatorI8FragmentEELi1ELb1EE5__getB8ue170006Ev, symObjAddr: 0x2DEF4, symBinAddr: 0x10002FCBC, symSize: 0x14 }
  - { offsetInCU: 0x28B9A, offset: 0x28B9A, size: 0x8, addend: 0x0, symName: __ZNSt3__123__libcpp_numeric_limitsIlLb1EE3maxB8ue170006Ev, symObjAddr: 0x2DF08, symBinAddr: 0x10002FCD0, symSize: 0x8 }
  - { offsetInCU: 0x28BAE, offset: 0x28BAE, size: 0x8, addend: 0x0, symName: __ZNSt12length_errorC1B8ue170006EPKc, symObjAddr: 0x2DF78, symBinAddr: 0x10002FD40, symSize: 0x34 }
  - { offsetInCU: 0x28BE6, offset: 0x28BE6, size: 0x8, addend: 0x0, symName: __ZNSt12length_errorC2B8ue170006EPKc, symObjAddr: 0x2DFAC, symBinAddr: 0x10002FD74, symSize: 0x8C }
  - { offsetInCU: 0x28C1E, offset: 0x28C1E, size: 0x8, addend: 0x0, symName: __ZNSt3__114__split_bufferI8FragmentRNS_9allocatorIS1_EEEC2EmmS4_, symObjAddr: 0x2E038, symBinAddr: 0x10002FE00, symSize: 0x520 }
  - { offsetInCU: 0x28C99, offset: 0x28C99, size: 0x8, addend: 0x0, symName: __ZNSt3__117__compressed_pairIP8FragmentRNS_9allocatorIS1_EEEC1B8ue170006IDnS5_EEOT_OT0_, symObjAddr: 0x2E558, symBinAddr: 0x100030320, symSize: 0x3C }
  - { offsetInCU: 0x28CF1, offset: 0x28CF1, size: 0x8, addend: 0x0, symName: __ZNSt3__114__split_bufferI8FragmentRNS_9allocatorIS1_EEE7__allocB8ue170006Ev, symObjAddr: 0x2E820, symBinAddr: 0x1000305E8, symSize: 0x28 }
  - { offsetInCU: 0x28D17, offset: 0x28D17, size: 0x8, addend: 0x0, symName: __ZNSt3__114__split_bufferI8FragmentRNS_9allocatorIS1_EEE9__end_capB8ue170006Ev, symObjAddr: 0x2E848, symBinAddr: 0x100030610, symSize: 0x28 }
  - { offsetInCU: 0x28D3D, offset: 0x28D3D, size: 0x8, addend: 0x0, symName: __ZNSt3__117__compressed_pairIP8FragmentRNS_9allocatorIS1_EEEC2B8ue170006IDnS5_EEOT_OT0_, symObjAddr: 0x2E870, symBinAddr: 0x100030638, symSize: 0x48 }
  - { offsetInCU: 0x28D95, offset: 0x28D95, size: 0x8, addend: 0x0, symName: __ZNSt3__122__compressed_pair_elemIRNS_9allocatorI8FragmentEELi1ELb0EEC2B8ue170006IS4_vEEOT_, symObjAddr: 0x2E8B8, symBinAddr: 0x100030680, symSize: 0x70 }
  - { offsetInCU: 0x28DD7, offset: 0x28DD7, size: 0x8, addend: 0x0, symName: __ZNSt3__19allocatorI8FragmentE8allocateB8ue170006Em, symObjAddr: 0x2E928, symBinAddr: 0x1000306F0, symSize: 0x88 }
  - { offsetInCU: 0x28E0B, offset: 0x28E0B, size: 0x8, addend: 0x0, symName: __ZNSt3__117__compressed_pairIP8FragmentRNS_9allocatorIS1_EEE6secondB8ue170006Ev, symObjAddr: 0x2E9B0, symBinAddr: 0x100030778, symSize: 0x28 }
  - { offsetInCU: 0x28E31, offset: 0x28E31, size: 0x8, addend: 0x0, symName: __ZNSt3__122__compressed_pair_elemIRNS_9allocatorI8FragmentEELi1ELb0EE5__getB8ue170006Ev, symObjAddr: 0x2E9D8, symBinAddr: 0x1000307A0, symSize: 0x60 }
  - { offsetInCU: 0x28E57, offset: 0x28E57, size: 0x8, addend: 0x0, symName: __ZNSt3__117__compressed_pairIP8FragmentRNS_9allocatorIS1_EEE5firstB8ue170006Ev, symObjAddr: 0x2EA38, symBinAddr: 0x100030800, symSize: 0x24 }
  - { offsetInCU: 0x28E7D, offset: 0x28E7D, size: 0x8, addend: 0x0, symName: __ZNSt3__116reverse_iteratorIP8FragmentEC1B8ue170006ES2_, symObjAddr: 0x2EFAC, symBinAddr: 0x100030D74, symSize: 0x34 }
  - { offsetInCU: 0x28EB5, offset: 0x28EB5, size: 0x8, addend: 0x0, symName: __ZNKSt3__116reverse_iteratorIP8FragmentE4baseB8ue170006Ev, symObjAddr: 0x2EFE0, symBinAddr: 0x100030DA8, symSize: 0x64 }
  - { offsetInCU: 0x28EDB, offset: 0x28EDB, size: 0x8, addend: 0x0, symName: __ZNKSt3__16vectorI8FragmentNS_9allocatorIS1_EEE14__annotate_newB8ue170006Em, symObjAddr: 0x2F178, symBinAddr: 0x100030F40, symSize: 0xD4 }
  - { offsetInCU: 0x28F10, offset: 0x28F10, size: 0x8, addend: 0x0, symName: __ZNKSt3__116reverse_iteratorIP8FragmentEdeB8ue170006Ev, symObjAddr: 0x2F2F8, symBinAddr: 0x1000310C0, symSize: 0x74 }
  - { offsetInCU: 0x28F44, offset: 0x28F44, size: 0x8, addend: 0x0, symName: __ZNSt3__116reverse_iteratorIP8FragmentEppB8ue170006Ev, symObjAddr: 0x2F36C, symBinAddr: 0x100031134, symSize: 0x6C }
  - { offsetInCU: 0x28F6F, offset: 0x28F6F, size: 0x8, addend: 0x0, symName: __ZNSt3__119__to_address_helperINS_16reverse_iteratorIP8FragmentEEvE6__callB8ue170006ERKS4_, symObjAddr: 0x2F888, symBinAddr: 0x100031650, symSize: 0x58 }
  - { offsetInCU: 0x28F92, offset: 0x28F92, size: 0x8, addend: 0x0, symName: __ZNKSt3__116reverse_iteratorIP8FragmentEptB8ue170006Ev, symObjAddr: 0x2F8E0, symBinAddr: 0x1000316A8, symSize: 0x24 }
  - { offsetInCU: 0x28FDC, offset: 0x28FDC, size: 0x8, addend: 0x0, symName: __ZNKSt3__111__move_loopINS_17_ClassicAlgPolicyEEclB8ue170006INS_16reverse_iteratorIP8FragmentEES7_S7_EENS_4pairIT_T1_EES9_T0_SA_, symObjAddr: 0x30E14, symBinAddr: 0x100032BDC, symSize: 0x344 }
  - { offsetInCU: 0x2905A, offset: 0x2905A, size: 0x8, addend: 0x0, symName: __ZNSt3__18_IterOpsINS_17_ClassicAlgPolicyEE11__iter_moveB8ue170006IRNS_16reverse_iteratorIP8FragmentEEEENS_9enable_ifIXsr12is_referenceIDTdeclsr3stdE7declvalIRT_EEEEE5valueEDTclsr3stdE4movedeclsr3stdE7declvalISB_EEEEE4typeEOSA_, symObjAddr: 0x31C4C, symBinAddr: 0x100033A14, symSize: 0x28 }
  - { offsetInCU: 0x29086, offset: 0x29086, size: 0x8, addend: 0x0, symName: __ZNSt3__18_IterOpsINS_17_ClassicAlgPolicyEE25__validate_iter_referenceB8ue170006IRNS_16reverse_iteratorIP8FragmentEEEEvv, symObjAddr: 0x31C74, symBinAddr: 0x100033A3C, symSize: 0x4 }
  - { offsetInCU: 0x290A4, offset: 0x290A4, size: 0x8, addend: 0x0, symName: __ZNSt3__118__unwrap_iter_implINS_16reverse_iteratorIP8FragmentEELb0EE8__unwrapB8ue170006ES4_, symObjAddr: 0x31C78, symBinAddr: 0x100033A40, symSize: 0x274 }
  - { offsetInCU: 0x290CB, offset: 0x290CB, size: 0x8, addend: 0x0, symName: __ZNSt3__14pairINS_16reverse_iteratorIP8FragmentEES4_EC1B8ue170006ERKS4_S7_, symObjAddr: 0x31EEC, symBinAddr: 0x100033CB4, symSize: 0x3C }
  - { offsetInCU: 0x29111, offset: 0x29111, size: 0x8, addend: 0x0, symName: __ZNSt3__14pairINS_16reverse_iteratorIP8FragmentEES4_EC2B8ue170006ERKS4_S7_, symObjAddr: 0x31F28, symBinAddr: 0x100033CF0, symSize: 0x54 }
  - { offsetInCU: 0x29157, offset: 0x29157, size: 0x8, addend: 0x0, symName: __ZNSt3__118__unwrap_iter_implINS_16reverse_iteratorIP8FragmentEELb0EE8__rewrapB8ue170006ES4_S4_, symObjAddr: 0x31F7C, symBinAddr: 0x100033D44, symSize: 0x2E0 }
  - { offsetInCU: 0x2918C, offset: 0x2918C, size: 0x8, addend: 0x0, symName: __ZNSt3__116reverse_iteratorIP8FragmentEC2B8ue170006ES2_, symObjAddr: 0x3225C, symBinAddr: 0x100034024, symSize: 0xB8 }
  - { offsetInCU: 0x291C4, offset: 0x291C4, size: 0x8, addend: 0x0, symName: __ZNSt3__114__split_bufferI8FragmentRNS_9allocatorIS1_EEED2Ev, symObjAddr: 0x32314, symBinAddr: 0x1000340DC, symSize: 0xEC }
  - { offsetInCU: 0x291F0, offset: 0x291F0, size: 0x8, addend: 0x0, symName: __ZNSt3__114__split_bufferI8FragmentRNS_9allocatorIS1_EEE5clearB8ue170006Ev, symObjAddr: 0x32400, symBinAddr: 0x1000341C8, symSize: 0x68 }
  - { offsetInCU: 0x29216, offset: 0x29216, size: 0x8, addend: 0x0, symName: __ZNKSt3__114__split_bufferI8FragmentRNS_9allocatorIS1_EEE8capacityB8ue170006Ev, symObjAddr: 0x32468, symBinAddr: 0x100034230, symSize: 0xBC }
  - { offsetInCU: 0x2923C, offset: 0x2923C, size: 0x8, addend: 0x0, symName: __ZNSt3__114__split_bufferI8FragmentRNS_9allocatorIS1_EEE17__destruct_at_endB8ue170006EPS1_, symObjAddr: 0x32524, symBinAddr: 0x1000342EC, symSize: 0x2C }
  - { offsetInCU: 0x29270, offset: 0x29270, size: 0x8, addend: 0x0, symName: __ZNSt3__114__split_bufferI8FragmentRNS_9allocatorIS1_EEE17__destruct_at_endB8ue170006EPS1_NS_17integral_constantIbLb0EEE, symObjAddr: 0x32550, symBinAddr: 0x100034318, symSize: 0x120 }
  - { offsetInCU: 0x292B0, offset: 0x292B0, size: 0x8, addend: 0x0, symName: __ZNKSt3__114__split_bufferI8FragmentRNS_9allocatorIS1_EEE9__end_capB8ue170006Ev, symObjAddr: 0x32670, symBinAddr: 0x100034438, symSize: 0x28 }
  - { offsetInCU: 0x292D6, offset: 0x292D6, size: 0x8, addend: 0x0, symName: __ZNKSt3__117__compressed_pairIP8FragmentRNS_9allocatorIS1_EEE5firstB8ue170006Ev, symObjAddr: 0x32698, symBinAddr: 0x100034460, symSize: 0x24 }
  - { offsetInCU: 0x292FC, offset: 0x292FC, size: 0x8, addend: 0x0, symName: __ZNSt3__13setImNS_4lessImEENS_9allocatorImEEEC2B8ue170006Ev, symObjAddr: 0x326BC, symBinAddr: 0x100034484, symSize: 0x1D8 }
  - { offsetInCU: 0x29327, offset: 0x29327, size: 0x8, addend: 0x0, symName: __ZNSt3__16__treeImNS_4lessImEENS_9allocatorImEEEC1ERKS2_, symObjAddr: 0x32894, symBinAddr: 0x10003465C, symSize: 0x34 }
  - { offsetInCU: 0x29362, offset: 0x29362, size: 0x8, addend: 0x0, symName: __ZNSt3__16__treeImNS_4lessImEENS_9allocatorImEEEC2ERKS2_, symObjAddr: 0x328C8, symBinAddr: 0x100034690, symSize: 0x2B4 }
  - { offsetInCU: 0x2939F, offset: 0x2939F, size: 0x8, addend: 0x0, symName: __ZNSt3__117__compressed_pairINS_15__tree_end_nodeIPNS_16__tree_node_baseIPvEEEENS_9allocatorINS_11__tree_nodeImS3_EEEEEC1B8ue170006ILb1EvEEv, symObjAddr: 0x32B7C, symBinAddr: 0x100034944, symSize: 0x2C }
  - { offsetInCU: 0x293D4, offset: 0x293D4, size: 0x8, addend: 0x0, symName: __ZNSt3__117__compressed_pairImNS_4lessImEEEC1B8ue170006IiRKS2_EEOT_OT0_, symObjAddr: 0x32BA8, symBinAddr: 0x100034970, symSize: 0x3C }
  - { offsetInCU: 0x2942C, offset: 0x2942C, size: 0x8, addend: 0x0, symName: __ZNSt3__16__treeImNS_4lessImEENS_9allocatorImEEE10__end_nodeB8ue170006Ev, symObjAddr: 0x32BE4, symBinAddr: 0x1000349AC, symSize: 0x2C }
  - { offsetInCU: 0x29452, offset: 0x29452, size: 0x8, addend: 0x0, symName: __ZNSt3__16__treeImNS_4lessImEENS_9allocatorImEEE12__begin_nodeB8ue170006Ev, symObjAddr: 0x32C10, symBinAddr: 0x1000349D8, symSize: 0x14 }
  - { offsetInCU: 0x29478, offset: 0x29478, size: 0x8, addend: 0x0, symName: __ZNSt3__117__compressed_pairINS_15__tree_end_nodeIPNS_16__tree_node_baseIPvEEEENS_9allocatorINS_11__tree_nodeImS3_EEEEEC2B8ue170006ILb1EvEEv, symObjAddr: 0x32C24, symBinAddr: 0x1000349EC, symSize: 0x34 }
  - { offsetInCU: 0x294AD, offset: 0x294AD, size: 0x8, addend: 0x0, symName: __ZNSt3__122__compressed_pair_elemINS_9allocatorINS_11__tree_nodeImPvEEEELi1ELb1EEC2B8ue170006ENS_16__value_init_tagE, symObjAddr: 0x32C58, symBinAddr: 0x100034A20, symSize: 0x2C }
  - { offsetInCU: 0x294E1, offset: 0x294E1, size: 0x8, addend: 0x0, symName: __ZNSt3__19allocatorINS_11__tree_nodeImPvEEEC2B8ue170006Ev, symObjAddr: 0x32C84, symBinAddr: 0x100034A4C, symSize: 0x2C }
  - { offsetInCU: 0x2950B, offset: 0x2950B, size: 0x8, addend: 0x0, symName: __ZNSt3__116__non_trivial_ifILb1ENS_9allocatorINS_11__tree_nodeImPvEEEEEC2B8ue170006Ev, symObjAddr: 0x32CB0, symBinAddr: 0x100034A78, symSize: 0x14 }
  - { offsetInCU: 0x29535, offset: 0x29535, size: 0x8, addend: 0x0, symName: __ZNSt3__117__compressed_pairImNS_4lessImEEEC2B8ue170006IiRKS2_EEOT_OT0_, symObjAddr: 0x32CC4, symBinAddr: 0x100034A8C, symSize: 0x44 }
  - { offsetInCU: 0x2958D, offset: 0x2958D, size: 0x8, addend: 0x0, symName: __ZNSt3__122__compressed_pair_elemINS_4lessImEELi1ELb1EEC2B8ue170006IRKS2_vEEOT_, symObjAddr: 0x32D08, symBinAddr: 0x100034AD0, symSize: 0x18 }
  - { offsetInCU: 0x295CF, offset: 0x295CF, size: 0x8, addend: 0x0, symName: __ZNSt3__117__compressed_pairINS_15__tree_end_nodeIPNS_16__tree_node_baseIPvEEEENS_9allocatorINS_11__tree_nodeImS3_EEEEE5firstB8ue170006Ev, symObjAddr: 0x32D20, symBinAddr: 0x100034AE8, symSize: 0x24 }
  - { offsetInCU: 0x295F5, offset: 0x295F5, size: 0x8, addend: 0x0, symName: __ZNSt3__13setImNS_4lessImEENS_9allocatorImEEED2B8ue170006Ev, symObjAddr: 0x32D44, symBinAddr: 0x100034B0C, symSize: 0x2C }
  - { offsetInCU: 0x2961F, offset: 0x2961F, size: 0x8, addend: 0x0, symName: __ZNSt3__16__treeImNS_4lessImEENS_9allocatorImEEED1Ev, symObjAddr: 0x32D70, symBinAddr: 0x100034B38, symSize: 0x2C }
  - { offsetInCU: 0x2964B, offset: 0x2964B, size: 0x8, addend: 0x0, symName: __ZNSt3__16__treeImNS_4lessImEENS_9allocatorImEEED2Ev, symObjAddr: 0x32D9C, symBinAddr: 0x100034B64, symSize: 0x38 }
  - { offsetInCU: 0x29677, offset: 0x29677, size: 0x8, addend: 0x0, symName: __ZNSt3__16__treeImNS_4lessImEENS_9allocatorImEEE7destroyEPNS_11__tree_nodeImPvEE, symObjAddr: 0x32DD4, symBinAddr: 0x100034B9C, symSize: 0x148 }
  - { offsetInCU: 0x296CB, offset: 0x296CB, size: 0x8, addend: 0x0, symName: __ZNKSt3__16__treeImNS_4lessImEENS_9allocatorImEEE6__rootB8ue170006Ev, symObjAddr: 0x32F1C, symBinAddr: 0x100034CE4, symSize: 0x6C }
  - { offsetInCU: 0x296F1, offset: 0x296F1, size: 0x8, addend: 0x0, symName: __ZNSt3__16__treeImNS_4lessImEENS_9allocatorImEEE12__node_allocB8ue170006Ev, symObjAddr: 0x32F88, symBinAddr: 0x100034D50, symSize: 0x28 }
  - { offsetInCU: 0x29717, offset: 0x29717, size: 0x8, addend: 0x0, symName: __ZNSt3__116allocator_traitsINS_9allocatorINS_11__tree_nodeImPvEEEEE7destroyB8ue170006ImvvEEvRS5_PT_, symObjAddr: 0x32FB0, symBinAddr: 0x100034D78, symSize: 0x14 }
  - { offsetInCU: 0x29751, offset: 0x29751, size: 0x8, addend: 0x0, symName: __ZNSt3__122__tree_key_value_typesImE9__get_ptrB8ue170006ERm, symObjAddr: 0x32FC4, symBinAddr: 0x100034D8C, symSize: 0x14 }
  - { offsetInCU: 0x29775, offset: 0x29775, size: 0x8, addend: 0x0, symName: __ZNSt3__116allocator_traitsINS_9allocatorINS_11__tree_nodeImPvEEEEE10deallocateB8ue170006ERS5_PS4_m, symObjAddr: 0x32FD8, symBinAddr: 0x100034DA0, symSize: 0x34 }
  - { offsetInCU: 0x297B7, offset: 0x297B7, size: 0x8, addend: 0x0, symName: __ZNSt3__117__compressed_pairINS_15__tree_end_nodeIPNS_16__tree_node_baseIPvEEEENS_9allocatorINS_11__tree_nodeImS3_EEEEE6secondB8ue170006Ev, symObjAddr: 0x3300C, symBinAddr: 0x100034DD4, symSize: 0x24 }
  - { offsetInCU: 0x297DD, offset: 0x297DD, size: 0x8, addend: 0x0, symName: __ZNSt3__122__compressed_pair_elemINS_9allocatorINS_11__tree_nodeImPvEEEELi1ELb1EE5__getB8ue170006Ev, symObjAddr: 0x33030, symBinAddr: 0x100034DF8, symSize: 0x14 }
  - { offsetInCU: 0x29803, offset: 0x29803, size: 0x8, addend: 0x0, symName: __ZNSt3__19allocatorINS_11__tree_nodeImPvEEE10deallocateB8ue170006EPS3_m, symObjAddr: 0x33044, symBinAddr: 0x100034E0C, symSize: 0x80 }
  - { offsetInCU: 0x29845, offset: 0x29845, size: 0x8, addend: 0x0, symName: __ZNKSt3__16__treeImNS_4lessImEENS_9allocatorImEEE10__end_nodeB8ue170006Ev, symObjAddr: 0x330C4, symBinAddr: 0x100034E8C, symSize: 0x2C }
  - { offsetInCU: 0x2986B, offset: 0x2986B, size: 0x8, addend: 0x0, symName: __ZNKSt3__117__compressed_pairINS_15__tree_end_nodeIPNS_16__tree_node_baseIPvEEEENS_9allocatorINS_11__tree_nodeImS3_EEEEE5firstB8ue170006Ev, symObjAddr: 0x330F0, symBinAddr: 0x100034EB8, symSize: 0x24 }
  - { offsetInCU: 0x29891, offset: 0x29891, size: 0x8, addend: 0x0, symName: __ZNSt3__16__treeImNS_4lessImEENS_9allocatorImEEE4findImEENS_15__tree_iteratorImPNS_11__tree_nodeImPvEElEERKT_, symObjAddr: 0x33114, symBinAddr: 0x100034EDC, symSize: 0x3FC }
  - { offsetInCU: 0x298E6, offset: 0x298E6, size: 0x8, addend: 0x0, symName: __ZNSt3__121__tree_const_iteratorImPNS_11__tree_nodeImPvEElEC1B8ue170006ENS_15__tree_iteratorImS4_lEE, symObjAddr: 0x33510, symBinAddr: 0x1000352D8, symSize: 0x238 }
  - { offsetInCU: 0x29924, offset: 0x29924, size: 0x8, addend: 0x0, symName: __ZNSt3__16__treeImNS_4lessImEENS_9allocatorImEEE13__lower_boundImEENS_15__tree_iteratorImPNS_11__tree_nodeImPvEElEERKT_SB_PNS_15__tree_end_nodeIPNS_16__tree_node_baseIS9_EEEE, symObjAddr: 0x33748, symBinAddr: 0x100035510, symSize: 0x2E0 }
  - { offsetInCU: 0x29986, offset: 0x29986, size: 0x8, addend: 0x0, symName: __ZNSt3__16__treeImNS_4lessImEENS_9allocatorImEEE3endB8ue170006Ev, symObjAddr: 0x33A5C, symBinAddr: 0x100035824, symSize: 0x204 }
  - { offsetInCU: 0x299AD, offset: 0x299AD, size: 0x8, addend: 0x0, symName: __ZNSt3__16__treeImNS_4lessImEENS_9allocatorImEEE10value_compB8ue170006Ev, symObjAddr: 0x33C60, symBinAddr: 0x100035A28, symSize: 0x28 }
  - { offsetInCU: 0x299D3, offset: 0x299D3, size: 0x8, addend: 0x0, symName: __ZNKSt3__14lessImEclB8ue170006ERKmS3_, symObjAddr: 0x33C88, symBinAddr: 0x100035A50, symSize: 0xBC }
  - { offsetInCU: 0x29A17, offset: 0x29A17, size: 0x8, addend: 0x0, symName: __ZNKSt3__115__tree_iteratorImPNS_11__tree_nodeImPvEElEdeB8ue170006Ev, symObjAddr: 0x33D44, symBinAddr: 0x100035B0C, symSize: 0x28 }
  - { offsetInCU: 0x29A3D, offset: 0x29A3D, size: 0x8, addend: 0x0, symName: __ZNSt3__115__tree_iteratorImPNS_11__tree_nodeImPvEElEC1B8ue170006EPNS_15__tree_end_nodeIPNS_16__tree_node_baseIS2_EEEE, symObjAddr: 0x33D6C, symBinAddr: 0x100035B34, symSize: 0x34 }
  - { offsetInCU: 0x29A76, offset: 0x29A76, size: 0x8, addend: 0x0, symName: __ZNSt3__115__tree_iteratorImPNS_11__tree_nodeImPvEElEC2B8ue170006EPNS_15__tree_end_nodeIPNS_16__tree_node_baseIS2_EEEE, symObjAddr: 0x33DA0, symBinAddr: 0x100035B68, symSize: 0x70 }
  - { offsetInCU: 0x29AAF, offset: 0x29AAF, size: 0x8, addend: 0x0, symName: __ZNSt3__117__compressed_pairImNS_4lessImEEE6secondB8ue170006Ev, symObjAddr: 0x33EC8, symBinAddr: 0x100035C90, symSize: 0x24 }
  - { offsetInCU: 0x29AD5, offset: 0x29AD5, size: 0x8, addend: 0x0, symName: __ZNSt3__122__compressed_pair_elemINS_4lessImEELi1ELb1EE5__getB8ue170006Ev, symObjAddr: 0x33EEC, symBinAddr: 0x100035CB4, symSize: 0x14 }
  - { offsetInCU: 0x29AFB, offset: 0x29AFB, size: 0x8, addend: 0x0, symName: __ZNKSt3__115__tree_iteratorImPNS_11__tree_nodeImPvEElE8__get_npB8ue170006Ev, symObjAddr: 0x33F00, symBinAddr: 0x100035CC8, symSize: 0x60 }
  - { offsetInCU: 0x29B21, offset: 0x29B21, size: 0x8, addend: 0x0, symName: __ZNSt3__121__tree_const_iteratorImPNS_11__tree_nodeImPvEElEC2B8ue170006ENS_15__tree_iteratorImS4_lEE, symObjAddr: 0x33F60, symBinAddr: 0x100035D28, symSize: 0x270 }
  - { offsetInCU: 0x29B5F, offset: 0x29B5F, size: 0x8, addend: 0x0, symName: __ZNSt3__16__treeImNS_4lessImEENS_9allocatorImEEE15__insert_uniqueB8ue170006ERKm, symObjAddr: 0x341D0, symBinAddr: 0x100035F98, symSize: 0x238 }
  - { offsetInCU: 0x29B96, offset: 0x29B96, size: 0x8, addend: 0x0, symName: __ZNSt3__14pairINS_21__tree_const_iteratorImPNS_11__tree_nodeImPvEElEEbEC1B8ue170006INS_15__tree_iteratorImS5_lEEbEERKNS0_IT_T0_EE, symObjAddr: 0x34408, symBinAddr: 0x1000361D0, symSize: 0x34 }
  - { offsetInCU: 0x29BE0, offset: 0x29BE0, size: 0x8, addend: 0x0, symName: __ZNSt3__16__treeImNS_4lessImEENS_9allocatorImEEE25__emplace_unique_key_argsImJRKmEEENS_4pairINS_15__tree_iteratorImPNS_11__tree_nodeImPvEElEEbEERKT_DpOT0_, symObjAddr: 0x3443C, symBinAddr: 0x100036204, symSize: 0x510 }
  - { offsetInCU: 0x29C9C, offset: 0x29C9C, size: 0x8, addend: 0x0, symName: __ZNSt3__122__tree_key_value_typesImE9__get_keyB8ue170006ERKm, symObjAddr: 0x3494C, symBinAddr: 0x100036714, symSize: 0x14 }
  - { offsetInCU: 0x29CC0, offset: 0x29CC0, size: 0x8, addend: 0x0, symName: __ZNSt3__16__treeImNS_4lessImEENS_9allocatorImEEE12__find_equalImEERPNS_16__tree_node_baseIPvEERPNS_15__tree_end_nodeISA_EERKT_, symObjAddr: 0x34960, symBinAddr: 0x100036728, symSize: 0x3F0 }
  - { offsetInCU: 0x29D2D, offset: 0x29D2D, size: 0x8, addend: 0x0, symName: __ZNSt3__16__treeImNS_4lessImEENS_9allocatorImEEE16__construct_nodeIJRKmEEENS_10unique_ptrINS_11__tree_nodeImPvEENS_22__tree_node_destructorINS3_ISC_EEEEEEDpOT_, symObjAddr: 0x34D50, symBinAddr: 0x100036B18, symSize: 0x390 }
  - { offsetInCU: 0x29D92, offset: 0x29D92, size: 0x8, addend: 0x0, symName: __ZNSt3__16__treeImNS_4lessImEENS_9allocatorImEEE16__insert_node_atEPNS_15__tree_end_nodeIPNS_16__tree_node_baseIPvEEEERSA_SA_, symObjAddr: 0x350E0, symBinAddr: 0x100036EA8, symSize: 0x370 }
  - { offsetInCU: 0x29DE7, offset: 0x29DE7, size: 0x8, addend: 0x0, symName: __ZNKSt3__110unique_ptrINS_11__tree_nodeImPvEENS_22__tree_node_destructorINS_9allocatorIS3_EEEEE3getB8ue170006Ev, symObjAddr: 0x35450, symBinAddr: 0x100037218, symSize: 0x6C }
  - { offsetInCU: 0x29E0D, offset: 0x29E0D, size: 0x8, addend: 0x0, symName: __ZNSt3__110unique_ptrINS_11__tree_nodeImPvEENS_22__tree_node_destructorINS_9allocatorIS3_EEEEE7releaseB8ue170006Ev, symObjAddr: 0x354BC, symBinAddr: 0x100037284, symSize: 0xB8 }
  - { offsetInCU: 0x29E42, offset: 0x29E42, size: 0x8, addend: 0x0, symName: __ZNSt3__110unique_ptrINS_11__tree_nodeImPvEENS_22__tree_node_destructorINS_9allocatorIS3_EEEEED1B8ue170006Ev, symObjAddr: 0x35574, symBinAddr: 0x10003733C, symSize: 0x2C }
  - { offsetInCU: 0x29E6C, offset: 0x29E6C, size: 0x8, addend: 0x0, symName: __ZNSt3__115__tree_iteratorImPNS_11__tree_nodeImPvEElEC1B8ue170006ES4_, symObjAddr: 0x355A0, symBinAddr: 0x100037368, symSize: 0x34 }
  - { offsetInCU: 0x29EA5, offset: 0x29EA5, size: 0x8, addend: 0x0, symName: __ZNSt3__14pairINS_15__tree_iteratorImPNS_11__tree_nodeImPvEElEEbEC1B8ue170006ERKS6_RKb, symObjAddr: 0x355D4, symBinAddr: 0x10003739C, symSize: 0x3C }
  - { offsetInCU: 0x29EEB, offset: 0x29EEB, size: 0x8, addend: 0x0, symName: __ZNKSt3__16__treeImNS_4lessImEENS_9allocatorImEEE10__root_ptrB8ue170006Ev, symObjAddr: 0x35610, symBinAddr: 0x1000373D8, symSize: 0x24 }
  - { offsetInCU: 0x29F11, offset: 0x29F11, size: 0x8, addend: 0x0, symName: __ZNSt3__116allocator_traitsINS_9allocatorINS_11__tree_nodeImPvEEEEE8allocateB8ue170006ERS5_m, symObjAddr: 0x35634, symBinAddr: 0x1000373FC, symSize: 0x2C }
  - { offsetInCU: 0x29F44, offset: 0x29F44, size: 0x8, addend: 0x0, symName: __ZNSt3__122__tree_node_destructorINS_9allocatorINS_11__tree_nodeImPvEEEEEC1B8ue170006ERS5_b, symObjAddr: 0x35660, symBinAddr: 0x100037428, symSize: 0x48 }
  - { offsetInCU: 0x29F92, offset: 0x29F92, size: 0x8, addend: 0x0, symName: __ZNSt3__110unique_ptrINS_11__tree_nodeImPvEENS_22__tree_node_destructorINS_9allocatorIS3_EEEEEC1B8ue170006ILb1EvEEPS3_NS_16__dependent_typeINS_27__unique_ptr_deleter_sfinaeIS7_EEXT_EE20__good_rval_ref_typeE, symObjAddr: 0x356A8, symBinAddr: 0x100037470, symSize: 0x3C }
  - { offsetInCU: 0x29FE3, offset: 0x29FE3, size: 0x8, addend: 0x0, symName: __ZNSt3__116allocator_traitsINS_9allocatorINS_11__tree_nodeImPvEEEEE9constructB8ue170006ImJRKmEvEEvRS5_PT_DpOT0_, symObjAddr: 0x356E4, symBinAddr: 0x1000374AC, symSize: 0x34 }
  - { offsetInCU: 0x2A03A, offset: 0x2A03A, size: 0x8, addend: 0x0, symName: __ZNKSt3__110unique_ptrINS_11__tree_nodeImPvEENS_22__tree_node_destructorINS_9allocatorIS3_EEEEEptB8ue170006Ev, symObjAddr: 0x35718, symBinAddr: 0x1000374E0, symSize: 0x6C }
  - { offsetInCU: 0x2A060, offset: 0x2A060, size: 0x8, addend: 0x0, symName: __ZNSt3__110unique_ptrINS_11__tree_nodeImPvEENS_22__tree_node_destructorINS_9allocatorIS3_EEEEE11get_deleterB8ue170006Ev, symObjAddr: 0x35784, symBinAddr: 0x10003754C, symSize: 0x24 }
  - { offsetInCU: 0x2A086, offset: 0x2A086, size: 0x8, addend: 0x0, symName: __ZNSt3__19allocatorINS_11__tree_nodeImPvEEE8allocateB8ue170006Em, symObjAddr: 0x357A8, symBinAddr: 0x100037570, symSize: 0x90 }
  - { offsetInCU: 0x2A0C4, offset: 0x2A0C4, size: 0x8, addend: 0x0, symName: __ZNSt3__116allocator_traitsINS_9allocatorINS_11__tree_nodeImPvEEEEE8max_sizeB8ue170006IS5_vEEmRKS5_, symObjAddr: 0x35838, symBinAddr: 0x100037600, symSize: 0x24 }
  - { offsetInCU: 0x2A0F2, offset: 0x2A0F2, size: 0x8, addend: 0x0, symName: __ZNKSt3__19allocatorINS_11__tree_nodeImPvEEE8max_sizeB8ue170006Ev, symObjAddr: 0x3585C, symBinAddr: 0x100037624, symSize: 0x18 }
  - { offsetInCU: 0x2A118, offset: 0x2A118, size: 0x8, addend: 0x0, symName: __ZNSt3__122__tree_node_destructorINS_9allocatorINS_11__tree_nodeImPvEEEEEC2B8ue170006ERS5_b, symObjAddr: 0x35874, symBinAddr: 0x10003763C, symSize: 0xF0 }
  - { offsetInCU: 0x2A160, offset: 0x2A160, size: 0x8, addend: 0x0, symName: __ZNSt3__110unique_ptrINS_11__tree_nodeImPvEENS_22__tree_node_destructorINS_9allocatorIS3_EEEEEC2B8ue170006ILb1EvEEPS3_NS_16__dependent_typeINS_27__unique_ptr_deleter_sfinaeIS7_EEXT_EE20__good_rval_ref_typeE, symObjAddr: 0x35964, symBinAddr: 0x10003772C, symSize: 0x230 }
  - { offsetInCU: 0x2A1B7, offset: 0x2A1B7, size: 0x8, addend: 0x0, symName: __ZNSt3__117__compressed_pairIPNS_11__tree_nodeImPvEENS_22__tree_node_destructorINS_9allocatorIS3_EEEEEC1B8ue170006IRS4_S8_EEOT_OT0_, symObjAddr: 0x35B94, symBinAddr: 0x10003795C, symSize: 0x3C }
  - { offsetInCU: 0x2A20F, offset: 0x2A20F, size: 0x8, addend: 0x0, symName: __ZNSt3__117__compressed_pairIPNS_11__tree_nodeImPvEENS_22__tree_node_destructorINS_9allocatorIS3_EEEEEC2B8ue170006IRS4_S8_EEOT_OT0_, symObjAddr: 0x35BD0, symBinAddr: 0x100037998, symSize: 0x48 }
  - { offsetInCU: 0x2A267, offset: 0x2A267, size: 0x8, addend: 0x0, symName: __ZNSt3__122__compressed_pair_elemIPNS_11__tree_nodeImPvEELi0ELb0EEC2B8ue170006IRS4_vEEOT_, symObjAddr: 0x35C18, symBinAddr: 0x1000379E0, symSize: 0xB0 }
  - { offsetInCU: 0x2A2A9, offset: 0x2A2A9, size: 0x8, addend: 0x0, symName: __ZNSt3__122__compressed_pair_elemINS_22__tree_node_destructorINS_9allocatorINS_11__tree_nodeImPvEEEEEELi1ELb0EEC2B8ue170006IS7_vEEOT_, symObjAddr: 0x35CC8, symBinAddr: 0x100037A90, symSize: 0x38 }
  - { offsetInCU: 0x2A2EB, offset: 0x2A2EB, size: 0x8, addend: 0x0, symName: __ZNSt3__19allocatorINS_11__tree_nodeImPvEEE9constructB8ue170006ImJRKmEEEvPT_DpOT0_, symObjAddr: 0x35D00, symBinAddr: 0x100037AC8, symSize: 0xB4 }
  - { offsetInCU: 0x2A341, offset: 0x2A341, size: 0x8, addend: 0x0, symName: __ZNKSt3__117__compressed_pairIPNS_11__tree_nodeImPvEENS_22__tree_node_destructorINS_9allocatorIS3_EEEEE5firstB8ue170006Ev, symObjAddr: 0x35DB4, symBinAddr: 0x100037B7C, symSize: 0x24 }
  - { offsetInCU: 0x2A367, offset: 0x2A367, size: 0x8, addend: 0x0, symName: __ZNKSt3__122__compressed_pair_elemIPNS_11__tree_nodeImPvEELi0ELb0EE5__getB8ue170006Ev, symObjAddr: 0x35DD8, symBinAddr: 0x100037BA0, symSize: 0x14 }
  - { offsetInCU: 0x2A38D, offset: 0x2A38D, size: 0x8, addend: 0x0, symName: __ZNSt3__117__compressed_pairIPNS_11__tree_nodeImPvEENS_22__tree_node_destructorINS_9allocatorIS3_EEEEE6secondB8ue170006Ev, symObjAddr: 0x35DEC, symBinAddr: 0x100037BB4, symSize: 0x28 }
  - { offsetInCU: 0x2A3B3, offset: 0x2A3B3, size: 0x8, addend: 0x0, symName: __ZNSt3__122__compressed_pair_elemINS_22__tree_node_destructorINS_9allocatorINS_11__tree_nodeImPvEEEEEELi1ELb0EE5__getB8ue170006Ev, symObjAddr: 0x35E14, symBinAddr: 0x100037BDC, symSize: 0x14 }
  - { offsetInCU: 0x2A3D9, offset: 0x2A3D9, size: 0x8, addend: 0x0, symName: __ZNSt3__16__treeImNS_4lessImEENS_9allocatorImEEE4sizeB8ue170006Ev, symObjAddr: 0x35E28, symBinAddr: 0x100037BF0, symSize: 0x28 }
  - { offsetInCU: 0x2A3FF, offset: 0x2A3FF, size: 0x8, addend: 0x0, symName: __ZNSt3__117__compressed_pairImNS_4lessImEEE5firstB8ue170006Ev, symObjAddr: 0x35E50, symBinAddr: 0x100037C18, symSize: 0x24 }
  - { offsetInCU: 0x2A425, offset: 0x2A425, size: 0x8, addend: 0x0, symName: __ZNSt3__117__compressed_pairIPNS_11__tree_nodeImPvEENS_22__tree_node_destructorINS_9allocatorIS3_EEEEE5firstB8ue170006Ev, symObjAddr: 0x35E74, symBinAddr: 0x100037C3C, symSize: 0x24 }
  - { offsetInCU: 0x2A44B, offset: 0x2A44B, size: 0x8, addend: 0x0, symName: __ZNSt3__122__compressed_pair_elemIPNS_11__tree_nodeImPvEELi0ELb0EE5__getB8ue170006Ev, symObjAddr: 0x35E98, symBinAddr: 0x100037C60, symSize: 0x14 }
  - { offsetInCU: 0x2A471, offset: 0x2A471, size: 0x8, addend: 0x0, symName: __ZNSt3__110unique_ptrINS_11__tree_nodeImPvEENS_22__tree_node_destructorINS_9allocatorIS3_EEEEED2B8ue170006Ev, symObjAddr: 0x35EAC, symBinAddr: 0x100037C74, symSize: 0x30 }
  - { offsetInCU: 0x2A49B, offset: 0x2A49B, size: 0x8, addend: 0x0, symName: __ZNSt3__110unique_ptrINS_11__tree_nodeImPvEENS_22__tree_node_destructorINS_9allocatorIS3_EEEEE5resetB8ue170006EPS3_, symObjAddr: 0x35EDC, symBinAddr: 0x100037CA4, symSize: 0xEC }
  - { offsetInCU: 0x2A4DF, offset: 0x2A4DF, size: 0x8, addend: 0x0, symName: __ZNSt3__122__tree_node_destructorINS_9allocatorINS_11__tree_nodeImPvEEEEEclB8ue170006EPS4_, symObjAddr: 0x35FC8, symBinAddr: 0x100037D90, symSize: 0x14C }
  - { offsetInCU: 0x2A514, offset: 0x2A514, size: 0x8, addend: 0x0, symName: __ZNSt3__115__tree_iteratorImPNS_11__tree_nodeImPvEElEC2B8ue170006ES4_, symObjAddr: 0x36114, symBinAddr: 0x100037EDC, symSize: 0x70 }
  - { offsetInCU: 0x2A54D, offset: 0x2A54D, size: 0x8, addend: 0x0, symName: __ZNSt3__14pairINS_15__tree_iteratorImPNS_11__tree_nodeImPvEElEEbEC2B8ue170006ERKS6_RKb, symObjAddr: 0x36184, symBinAddr: 0x100037F4C, symSize: 0x120 }
  - { offsetInCU: 0x2A593, offset: 0x2A593, size: 0x8, addend: 0x0, symName: __ZNSt3__14pairINS_21__tree_const_iteratorImPNS_11__tree_nodeImPvEElEEbEC2B8ue170006INS_15__tree_iteratorImS5_lEEbEERKNS0_IT_T0_EE, symObjAddr: 0x362A4, symBinAddr: 0x10003806C, symSize: 0x2E8 }
  - { offsetInCU: 0x2A5DF, offset: 0x2A5DF, size: 0x8, addend: 0x0, symName: __ZNSt3__112basic_stringIcNS_11char_traitsIcEENS_9allocatorIcEEEC2B8ue170006Ev, symObjAddr: 0x3658C, symBinAddr: 0x100038354, symSize: 0x1F4 }
  - { offsetInCU: 0x2A60A, offset: 0x2A60A, size: 0x8, addend: 0x0, symName: __ZNSt3__112basic_stringIcNS_11char_traitsIcEENS_9allocatorIcEEE14__default_initB8ue170006Ev, symObjAddr: 0x36780, symBinAddr: 0x100038548, symSize: 0x298 }
  - { offsetInCU: 0x2A65F, offset: 0x2A65F, size: 0x8, addend: 0x0, symName: __ZNSt3__112basic_stringIcNS_11char_traitsIcEENS_9allocatorIcEEE11__recommendB8ue170006Em, symObjAddr: 0x36A18, symBinAddr: 0x1000387E0, symSize: 0x9C }
  - { offsetInCU: 0x2A692, offset: 0x2A692, size: 0x8, addend: 0x0, symName: __ZNSt3__116allocator_traitsINS_9allocatorIcEEE8allocateB8ue170006ERS2_m, symObjAddr: 0x36AB4, symBinAddr: 0x10003887C, symSize: 0x2C }
  - { offsetInCU: 0x2A6C5, offset: 0x2A6C5, size: 0x8, addend: 0x0, symName: __ZNSt3__112basic_stringIcNS_11char_traitsIcEENS_9allocatorIcEEE7__allocB8ue170006Ev, symObjAddr: 0x36AE0, symBinAddr: 0x1000388A8, symSize: 0x24 }
  - { offsetInCU: 0x2A6EB, offset: 0x2A6EB, size: 0x8, addend: 0x0, symName: __ZNSt3__112basic_stringIcNS_11char_traitsIcEENS_9allocatorIcEEE16__begin_lifetimeB8ue170006EPcm, symObjAddr: 0x36B04, symBinAddr: 0x1000388CC, symSize: 0x14 }
  - { offsetInCU: 0x2A71E, offset: 0x2A71E, size: 0x8, addend: 0x0, symName: __ZNSt3__112basic_stringIcNS_11char_traitsIcEENS_9allocatorIcEEE18__set_long_pointerB8ue170006EPc, symObjAddr: 0x36B18, symBinAddr: 0x1000388E0, symSize: 0x7C }
  - { offsetInCU: 0x2A753, offset: 0x2A753, size: 0x8, addend: 0x0, symName: __ZNSt3__112basic_stringIcNS_11char_traitsIcEENS_9allocatorIcEEE14__set_long_capB8ue170006Em, symObjAddr: 0x36B94, symBinAddr: 0x10003895C, symSize: 0xEC }
  - { offsetInCU: 0x2A788, offset: 0x2A788, size: 0x8, addend: 0x0, symName: __ZNSt3__112basic_stringIcNS_11char_traitsIcEENS_9allocatorIcEEE15__set_long_sizeB8ue170006Em, symObjAddr: 0x36C80, symBinAddr: 0x100038A48, symSize: 0x80 }
  - { offsetInCU: 0x2A7BD, offset: 0x2A7BD, size: 0x8, addend: 0x0, symName: __ZNSt3__112basic_stringIcNS_11char_traitsIcEENS_9allocatorIcEEE10__align_itB8ue170006ILm16EEEmm, symObjAddr: 0x36D00, symBinAddr: 0x100038AC8, symSize: 0x1C }
  - { offsetInCU: 0x2A7EB, offset: 0x2A7EB, size: 0x8, addend: 0x0, symName: __ZNSt3__19allocatorIcE8allocateB8ue170006Em, symObjAddr: 0x36D1C, symBinAddr: 0x100038AE4, symSize: 0x88 }
  - { offsetInCU: 0x2A829, offset: 0x2A829, size: 0x8, addend: 0x0, symName: __ZNSt3__116allocator_traitsINS_9allocatorIcEEE8max_sizeB8ue170006IS2_vEEmRKS2_, symObjAddr: 0x36DA4, symBinAddr: 0x100038B6C, symSize: 0x24 }
  - { offsetInCU: 0x2A857, offset: 0x2A857, size: 0x8, addend: 0x0, symName: __ZNKSt3__19allocatorIcE8max_sizeB8ue170006Ev, symObjAddr: 0x36DC8, symBinAddr: 0x100038B90, symSize: 0x14 }
  - { offsetInCU: 0x2A87D, offset: 0x2A87D, size: 0x8, addend: 0x0, symName: __ZNSt3__117__compressed_pairINS_12basic_stringIcNS_11char_traitsIcEENS_9allocatorIcEEE5__repES5_E6secondB8ue170006Ev, symObjAddr: 0x36DDC, symBinAddr: 0x100038BA4, symSize: 0x24 }
  - { offsetInCU: 0x2A8A3, offset: 0x2A8A3, size: 0x8, addend: 0x0, symName: __ZNSt3__15stackIcNS_5dequeIcNS_9allocatorIcEEEEEC2B8ue170006Ev, symObjAddr: 0x36E00, symBinAddr: 0x100038BC8, symSize: 0x2C }
  - { offsetInCU: 0x2A8CD, offset: 0x2A8CD, size: 0x8, addend: 0x0, symName: __ZNSt3__15dequeIcNS_9allocatorIcEEEC1B8ue170006Ev, symObjAddr: 0x36E2C, symBinAddr: 0x100038BF4, symSize: 0x2C }
  - { offsetInCU: 0x2A8F7, offset: 0x2A8F7, size: 0x8, addend: 0x0, symName: __ZNSt3__15dequeIcNS_9allocatorIcEEEC2B8ue170006Ev, symObjAddr: 0x36E58, symBinAddr: 0x100038C20, symSize: 0x378 }
  - { offsetInCU: 0x2A922, offset: 0x2A922, size: 0x8, addend: 0x0, symName: __ZNSt3__114__split_bufferIPcNS_9allocatorIS1_EEEC1B8ue170006Ev, symObjAddr: 0x371D0, symBinAddr: 0x100038F98, symSize: 0x2C }
  - { offsetInCU: 0x2A94C, offset: 0x2A94C, size: 0x8, addend: 0x0, symName: __ZNSt3__117__compressed_pairImNS_9allocatorIcEEEC1B8ue170006IiNS_18__default_init_tagEEEOT_OT0_, symObjAddr: 0x371FC, symBinAddr: 0x100038FC4, symSize: 0x3C }
  - { offsetInCU: 0x2A9A4, offset: 0x2A9A4, size: 0x8, addend: 0x0, symName: __ZNSt3__114__split_bufferIPcNS_9allocatorIS1_EEEC2B8ue170006Ev, symObjAddr: 0x37238, symBinAddr: 0x100039000, symSize: 0x30C }
  - { offsetInCU: 0x2A9CF, offset: 0x2A9CF, size: 0x8, addend: 0x0, symName: __ZNSt3__117__compressed_pairIPPcNS_9allocatorIS1_EEEC1B8ue170006IDnNS_18__default_init_tagEEEOT_OT0_, symObjAddr: 0x37544, symBinAddr: 0x10003930C, symSize: 0x3C }
  - { offsetInCU: 0x2AA27, offset: 0x2AA27, size: 0x8, addend: 0x0, symName: __ZNSt3__117__compressed_pairIPPcNS_9allocatorIS1_EEEC2B8ue170006IDnNS_18__default_init_tagEEEOT_OT0_, symObjAddr: 0x37580, symBinAddr: 0x100039348, symSize: 0x40 }
  - { offsetInCU: 0x2AA7F, offset: 0x2AA7F, size: 0x8, addend: 0x0, symName: __ZNSt3__122__compressed_pair_elemIPPcLi0ELb0EEC2B8ue170006IDnvEEOT_, symObjAddr: 0x375C0, symBinAddr: 0x100039388, symSize: 0x64 }
  - { offsetInCU: 0x2AAC1, offset: 0x2AAC1, size: 0x8, addend: 0x0, symName: __ZNSt3__122__compressed_pair_elemINS_9allocatorIPcEELi1ELb1EEC2B8ue170006ENS_18__default_init_tagE, symObjAddr: 0x37624, symBinAddr: 0x1000393EC, symSize: 0x2C }
  - { offsetInCU: 0x2AAF5, offset: 0x2AAF5, size: 0x8, addend: 0x0, symName: __ZNSt3__19allocatorIPcEC2B8ue170006Ev, symObjAddr: 0x37650, symBinAddr: 0x100039418, symSize: 0x2C }
  - { offsetInCU: 0x2AB1F, offset: 0x2AB1F, size: 0x8, addend: 0x0, symName: __ZNSt3__116__non_trivial_ifILb1ENS_9allocatorIPcEEEC2B8ue170006Ev, symObjAddr: 0x3767C, symBinAddr: 0x100039444, symSize: 0x14 }
  - { offsetInCU: 0x2AB49, offset: 0x2AB49, size: 0x8, addend: 0x0, symName: __ZNSt3__117__compressed_pairImNS_9allocatorIcEEEC2B8ue170006IiNS_18__default_init_tagEEEOT_OT0_, symObjAddr: 0x37690, symBinAddr: 0x100039458, symSize: 0x40 }
  - { offsetInCU: 0x2ABA1, offset: 0x2ABA1, size: 0x8, addend: 0x0, symName: __ZNSt3__13mapIciNS_4lessIcEENS_9allocatorINS_4pairIKciEEEEEC2B8ue170006Ev, symObjAddr: 0x376D0, symBinAddr: 0x100039498, symSize: 0x1E8 }
  - { offsetInCU: 0x2ABCC, offset: 0x2ABCC, size: 0x8, addend: 0x0, symName: __ZNSt3__119__map_value_compareIcNS_12__value_typeIciEENS_4lessIcEELb1EEC1B8ue170006ES4_, symObjAddr: 0x378B8, symBinAddr: 0x100039680, symSize: 0x2C }
  - { offsetInCU: 0x2AC05, offset: 0x2AC05, size: 0x8, addend: 0x0, symName: __ZNSt3__16__treeINS_12__value_typeIciEENS_19__map_value_compareIcS2_NS_4lessIcEELb1EEENS_9allocatorIS2_EEEC1ERKS6_, symObjAddr: 0x378E4, symBinAddr: 0x1000396AC, symSize: 0x34 }
  - { offsetInCU: 0x2AC40, offset: 0x2AC40, size: 0x8, addend: 0x0, symName: __ZNSt3__119__map_value_compareIcNS_12__value_typeIciEENS_4lessIcEELb1EEC2B8ue170006ES4_, symObjAddr: 0x37918, symBinAddr: 0x1000396E0, symSize: 0x14 }
  - { offsetInCU: 0x2AC79, offset: 0x2AC79, size: 0x8, addend: 0x0, symName: __ZNSt3__16__treeINS_12__value_typeIciEENS_19__map_value_compareIcS2_NS_4lessIcEELb1EEENS_9allocatorIS2_EEEC2ERKS6_, symObjAddr: 0x3792C, symBinAddr: 0x1000396F4, symSize: 0x2B4 }
  - { offsetInCU: 0x2ACB6, offset: 0x2ACB6, size: 0x8, addend: 0x0, symName: __ZNSt3__117__compressed_pairINS_15__tree_end_nodeIPNS_16__tree_node_baseIPvEEEENS_9allocatorINS_11__tree_nodeINS_12__value_typeIciEES3_EEEEEC1B8ue170006ILb1EvEEv, symObjAddr: 0x37BE0, symBinAddr: 0x1000399A8, symSize: 0x2C }
  - { offsetInCU: 0x2ACEB, offset: 0x2ACEB, size: 0x8, addend: 0x0, symName: __ZNSt3__117__compressed_pairImNS_19__map_value_compareIcNS_12__value_typeIciEENS_4lessIcEELb1EEEEC1B8ue170006IiRKS6_EEOT_OT0_, symObjAddr: 0x37C0C, symBinAddr: 0x1000399D4, symSize: 0x3C }
  - { offsetInCU: 0x2AD43, offset: 0x2AD43, size: 0x8, addend: 0x0, symName: __ZNSt3__16__treeINS_12__value_typeIciEENS_19__map_value_compareIcS2_NS_4lessIcEELb1EEENS_9allocatorIS2_EEE10__end_nodeB8ue170006Ev, symObjAddr: 0x37C48, symBinAddr: 0x100039A10, symSize: 0x2C }
  - { offsetInCU: 0x2AD69, offset: 0x2AD69, size: 0x8, addend: 0x0, symName: __ZNSt3__16__treeINS_12__value_typeIciEENS_19__map_value_compareIcS2_NS_4lessIcEELb1EEENS_9allocatorIS2_EEE12__begin_nodeB8ue170006Ev, symObjAddr: 0x37C74, symBinAddr: 0x100039A3C, symSize: 0x14 }
  - { offsetInCU: 0x2AD8F, offset: 0x2AD8F, size: 0x8, addend: 0x0, symName: __ZNSt3__117__compressed_pairINS_15__tree_end_nodeIPNS_16__tree_node_baseIPvEEEENS_9allocatorINS_11__tree_nodeINS_12__value_typeIciEES3_EEEEEC2B8ue170006ILb1EvEEv, symObjAddr: 0x37C88, symBinAddr: 0x100039A50, symSize: 0x34 }
  - { offsetInCU: 0x2ADC4, offset: 0x2ADC4, size: 0x8, addend: 0x0, symName: __ZNSt3__122__compressed_pair_elemINS_9allocatorINS_11__tree_nodeINS_12__value_typeIciEEPvEEEELi1ELb1EEC2B8ue170006ENS_16__value_init_tagE, symObjAddr: 0x37CBC, symBinAddr: 0x100039A84, symSize: 0x2C }
  - { offsetInCU: 0x2ADF8, offset: 0x2ADF8, size: 0x8, addend: 0x0, symName: __ZNSt3__19allocatorINS_11__tree_nodeINS_12__value_typeIciEEPvEEEC2B8ue170006Ev, symObjAddr: 0x37CE8, symBinAddr: 0x100039AB0, symSize: 0x2C }
  - { offsetInCU: 0x2AE22, offset: 0x2AE22, size: 0x8, addend: 0x0, symName: __ZNSt3__116__non_trivial_ifILb1ENS_9allocatorINS_11__tree_nodeINS_12__value_typeIciEEPvEEEEEC2B8ue170006Ev, symObjAddr: 0x37D14, symBinAddr: 0x100039ADC, symSize: 0x14 }
  - { offsetInCU: 0x2AE4C, offset: 0x2AE4C, size: 0x8, addend: 0x0, symName: __ZNSt3__117__compressed_pairImNS_19__map_value_compareIcNS_12__value_typeIciEENS_4lessIcEELb1EEEEC2B8ue170006IiRKS6_EEOT_OT0_, symObjAddr: 0x37D28, symBinAddr: 0x100039AF0, symSize: 0x44 }
  - { offsetInCU: 0x2AEA4, offset: 0x2AEA4, size: 0x8, addend: 0x0, symName: __ZNSt3__122__compressed_pair_elemINS_19__map_value_compareIcNS_12__value_typeIciEENS_4lessIcEELb1EEELi1ELb1EEC2B8ue170006IRKS6_vEEOT_, symObjAddr: 0x37D6C, symBinAddr: 0x100039B34, symSize: 0x18 }
  - { offsetInCU: 0x2AEE6, offset: 0x2AEE6, size: 0x8, addend: 0x0, symName: __ZNSt3__117__compressed_pairINS_15__tree_end_nodeIPNS_16__tree_node_baseIPvEEEENS_9allocatorINS_11__tree_nodeINS_12__value_typeIciEES3_EEEEE5firstB8ue170006Ev, symObjAddr: 0x37D84, symBinAddr: 0x100039B4C, symSize: 0x24 }
  - { offsetInCU: 0x2AF0C, offset: 0x2AF0C, size: 0x8, addend: 0x0, symName: __ZNSt3__13mapIciNS_4lessIcEENS_9allocatorINS_4pairIKciEEEEED2B8ue170006Ev, symObjAddr: 0x37DA8, symBinAddr: 0x100039B70, symSize: 0x2C }
  - { offsetInCU: 0x2AF36, offset: 0x2AF36, size: 0x8, addend: 0x0, symName: __ZNSt3__16__treeINS_12__value_typeIciEENS_19__map_value_compareIcS2_NS_4lessIcEELb1EEENS_9allocatorIS2_EEED1Ev, symObjAddr: 0x37DD4, symBinAddr: 0x100039B9C, symSize: 0x2C }
  - { offsetInCU: 0x2AF62, offset: 0x2AF62, size: 0x8, addend: 0x0, symName: __ZNSt3__16__treeINS_12__value_typeIciEENS_19__map_value_compareIcS2_NS_4lessIcEELb1EEENS_9allocatorIS2_EEED2Ev, symObjAddr: 0x37E00, symBinAddr: 0x100039BC8, symSize: 0x38 }
  - { offsetInCU: 0x2AF8E, offset: 0x2AF8E, size: 0x8, addend: 0x0, symName: __ZNSt3__16__treeINS_12__value_typeIciEENS_19__map_value_compareIcS2_NS_4lessIcEELb1EEENS_9allocatorIS2_EEE7destroyEPNS_11__tree_nodeIS2_PvEE, symObjAddr: 0x37E38, symBinAddr: 0x100039C00, symSize: 0x148 }
  - { offsetInCU: 0x2AFE2, offset: 0x2AFE2, size: 0x8, addend: 0x0, symName: __ZNKSt3__16__treeINS_12__value_typeIciEENS_19__map_value_compareIcS2_NS_4lessIcEELb1EEENS_9allocatorIS2_EEE6__rootB8ue170006Ev, symObjAddr: 0x37F80, symBinAddr: 0x100039D48, symSize: 0x6C }
  - { offsetInCU: 0x2B008, offset: 0x2B008, size: 0x8, addend: 0x0, symName: __ZNSt3__16__treeINS_12__value_typeIciEENS_19__map_value_compareIcS2_NS_4lessIcEELb1EEENS_9allocatorIS2_EEE12__node_allocB8ue170006Ev, symObjAddr: 0x37FEC, symBinAddr: 0x100039DB4, symSize: 0x28 }
  - { offsetInCU: 0x2B02E, offset: 0x2B02E, size: 0x8, addend: 0x0, symName: __ZNSt3__116allocator_traitsINS_9allocatorINS_11__tree_nodeINS_12__value_typeIciEEPvEEEEE7destroyB8ue170006INS_4pairIKciEEvvEEvRS7_PT_, symObjAddr: 0x38014, symBinAddr: 0x100039DDC, symSize: 0x14 }
  - { offsetInCU: 0x2B068, offset: 0x2B068, size: 0x8, addend: 0x0, symName: __ZNSt3__122__tree_key_value_typesINS_12__value_typeIciEEE9__get_ptrB8ue170006ERS2_, symObjAddr: 0x38028, symBinAddr: 0x100039DF0, symSize: 0x24 }
  - { offsetInCU: 0x2B08C, offset: 0x2B08C, size: 0x8, addend: 0x0, symName: __ZNSt3__116allocator_traitsINS_9allocatorINS_11__tree_nodeINS_12__value_typeIciEEPvEEEEE10deallocateB8ue170006ERS7_PS6_m, symObjAddr: 0x3804C, symBinAddr: 0x100039E14, symSize: 0x34 }
  - { offsetInCU: 0x2B0CE, offset: 0x2B0CE, size: 0x8, addend: 0x0, symName: __ZNSt3__117__compressed_pairINS_15__tree_end_nodeIPNS_16__tree_node_baseIPvEEEENS_9allocatorINS_11__tree_nodeINS_12__value_typeIciEES3_EEEEE6secondB8ue170006Ev, symObjAddr: 0x38080, symBinAddr: 0x100039E48, symSize: 0x24 }
  - { offsetInCU: 0x2B0F4, offset: 0x2B0F4, size: 0x8, addend: 0x0, symName: __ZNSt3__122__compressed_pair_elemINS_9allocatorINS_11__tree_nodeINS_12__value_typeIciEEPvEEEELi1ELb1EE5__getB8ue170006Ev, symObjAddr: 0x380A4, symBinAddr: 0x100039E6C, symSize: 0x14 }
  - { offsetInCU: 0x2B11A, offset: 0x2B11A, size: 0x8, addend: 0x0, symName: __ZNSt3__112__value_typeIciE11__get_valueB8ue170006Ev, symObjAddr: 0x380B8, symBinAddr: 0x100039E80, symSize: 0x14 }
  - { offsetInCU: 0x2B140, offset: 0x2B140, size: 0x8, addend: 0x0, symName: __ZNSt3__19allocatorINS_11__tree_nodeINS_12__value_typeIciEEPvEEE10deallocateB8ue170006EPS5_m, symObjAddr: 0x380CC, symBinAddr: 0x100039E94, symSize: 0x80 }
  - { offsetInCU: 0x2B182, offset: 0x2B182, size: 0x8, addend: 0x0, symName: __ZNKSt3__16__treeINS_12__value_typeIciEENS_19__map_value_compareIcS2_NS_4lessIcEELb1EEENS_9allocatorIS2_EEE10__end_nodeB8ue170006Ev, symObjAddr: 0x3814C, symBinAddr: 0x100039F14, symSize: 0x2C }
  - { offsetInCU: 0x2B1A8, offset: 0x2B1A8, size: 0x8, addend: 0x0, symName: __ZNKSt3__117__compressed_pairINS_15__tree_end_nodeIPNS_16__tree_node_baseIPvEEEENS_9allocatorINS_11__tree_nodeINS_12__value_typeIciEES3_EEEEE5firstB8ue170006Ev, symObjAddr: 0x38178, symBinAddr: 0x100039F40, symSize: 0x24 }
  - { offsetInCU: 0x2B1CE, offset: 0x2B1CE, size: 0x8, addend: 0x0, symName: __ZNSt3__16__treeINS_12__value_typeIciEENS_19__map_value_compareIcS2_NS_4lessIcEELb1EEENS_9allocatorIS2_EEE12__find_equalIcEERPNS_16__tree_node_baseIPvEERPNS_15__tree_end_nodeISE_EERKT_, symObjAddr: 0x3819C, symBinAddr: 0x100039F64, symSize: 0x3F0 }
  - { offsetInCU: 0x2B23B, offset: 0x2B23B, size: 0x8, addend: 0x0, symName: __ZNSt3__13mapIciNS_4lessIcEENS_9allocatorINS_4pairIKciEEEEE25__construct_node_with_keyERS5_, symObjAddr: 0x3858C, symBinAddr: 0x10003A354, symSize: 0x41C }
  - { offsetInCU: 0x2B295, offset: 0x2B295, size: 0x8, addend: 0x0, symName: __ZNSt3__16__treeINS_12__value_typeIciEENS_19__map_value_compareIcS2_NS_4lessIcEELb1EEENS_9allocatorIS2_EEE16__insert_node_atEPNS_15__tree_end_nodeIPNS_16__tree_node_baseIPvEEEERSE_SE_, symObjAddr: 0x389A8, symBinAddr: 0x10003A770, symSize: 0x370 }
  - { offsetInCU: 0x2B2EA, offset: 0x2B2EA, size: 0x8, addend: 0x0, symName: __ZNKSt3__110unique_ptrINS_11__tree_nodeINS_12__value_typeIciEEPvEENS_21__map_node_destructorINS_9allocatorIS5_EEEEE3getB8ue170006Ev, symObjAddr: 0x38D18, symBinAddr: 0x10003AAE0, symSize: 0x6C }
  - { offsetInCU: 0x2B310, offset: 0x2B310, size: 0x8, addend: 0x0, symName: __ZNSt3__110unique_ptrINS_11__tree_nodeINS_12__value_typeIciEEPvEENS_21__map_node_destructorINS_9allocatorIS5_EEEEE7releaseB8ue170006Ev, symObjAddr: 0x38D84, symBinAddr: 0x10003AB4C, symSize: 0xB8 }
  - { offsetInCU: 0x2B345, offset: 0x2B345, size: 0x8, addend: 0x0, symName: __ZNSt3__110unique_ptrINS_11__tree_nodeINS_12__value_typeIciEEPvEENS_21__map_node_destructorINS_9allocatorIS5_EEEEED1B8ue170006Ev, symObjAddr: 0x38E3C, symBinAddr: 0x10003AC04, symSize: 0x2C }
  - { offsetInCU: 0x2B36F, offset: 0x2B36F, size: 0x8, addend: 0x0, symName: __ZNKSt3__16__treeINS_12__value_typeIciEENS_19__map_value_compareIcS2_NS_4lessIcEELb1EEENS_9allocatorIS2_EEE10__root_ptrB8ue170006Ev, symObjAddr: 0x38E68, symBinAddr: 0x10003AC30, symSize: 0x24 }
  - { offsetInCU: 0x2B395, offset: 0x2B395, size: 0x8, addend: 0x0, symName: __ZNSt3__16__treeINS_12__value_typeIciEENS_19__map_value_compareIcS2_NS_4lessIcEELb1EEENS_9allocatorIS2_EEE10value_compB8ue170006Ev, symObjAddr: 0x38E8C, symBinAddr: 0x10003AC54, symSize: 0x28 }
  - { offsetInCU: 0x2B3BB, offset: 0x2B3BB, size: 0x8, addend: 0x0, symName: __ZNKSt3__119__map_value_compareIcNS_12__value_typeIciEENS_4lessIcEELb1EEclB8ue170006ERKcRKS2_, symObjAddr: 0x38EB4, symBinAddr: 0x10003AC7C, symSize: 0x50 }
  - { offsetInCU: 0x2B3FF, offset: 0x2B3FF, size: 0x8, addend: 0x0, symName: __ZNKSt3__119__map_value_compareIcNS_12__value_typeIciEENS_4lessIcEELb1EEclB8ue170006ERKS2_RKc, symObjAddr: 0x38F04, symBinAddr: 0x10003ACCC, symSize: 0x48 }
  - { offsetInCU: 0x2B443, offset: 0x2B443, size: 0x8, addend: 0x0, symName: __ZNSt3__117__compressed_pairImNS_19__map_value_compareIcNS_12__value_typeIciEENS_4lessIcEELb1EEEE6secondB8ue170006Ev, symObjAddr: 0x38F4C, symBinAddr: 0x10003AD14, symSize: 0x24 }
  - { offsetInCU: 0x2B469, offset: 0x2B469, size: 0x8, addend: 0x0, symName: __ZNSt3__122__compressed_pair_elemINS_19__map_value_compareIcNS_12__value_typeIciEENS_4lessIcEELb1EEELi1ELb1EE5__getB8ue170006Ev, symObjAddr: 0x38F70, symBinAddr: 0x10003AD38, symSize: 0x14 }
  - { offsetInCU: 0x2B48F, offset: 0x2B48F, size: 0x8, addend: 0x0, symName: __ZNKSt3__14lessIcEclB8ue170006ERKcS3_, symObjAddr: 0x38F84, symBinAddr: 0x10003AD4C, symSize: 0x104 }
  - { offsetInCU: 0x2B4D3, offset: 0x2B4D3, size: 0x8, addend: 0x0, symName: __ZNKSt3__112__value_typeIciE11__get_valueB8ue170006Ev, symObjAddr: 0x39088, symBinAddr: 0x10003AE50, symSize: 0x14 }
  - { offsetInCU: 0x2B4F9, offset: 0x2B4F9, size: 0x8, addend: 0x0, symName: __ZNSt3__116allocator_traitsINS_9allocatorINS_11__tree_nodeINS_12__value_typeIciEEPvEEEEE8allocateB8ue170006ERS7_m, symObjAddr: 0x3909C, symBinAddr: 0x10003AE64, symSize: 0x2C }
  - { offsetInCU: 0x2B52C, offset: 0x2B52C, size: 0x8, addend: 0x0, symName: __ZNSt3__121__map_node_destructorINS_9allocatorINS_11__tree_nodeINS_12__value_typeIciEEPvEEEEEC1B8ue170006ERS7_, symObjAddr: 0x390C8, symBinAddr: 0x10003AE90, symSize: 0x34 }
  - { offsetInCU: 0x2B56B, offset: 0x2B56B, size: 0x8, addend: 0x0, symName: __ZNSt3__110unique_ptrINS_11__tree_nodeINS_12__value_typeIciEEPvEENS_21__map_node_destructorINS_9allocatorIS5_EEEEEC1B8ue170006ILb1EvEEPS5_NS_16__dependent_typeINS_27__unique_ptr_deleter_sfinaeIS9_EEXT_EE20__good_rval_ref_typeE, symObjAddr: 0x390FC, symBinAddr: 0x10003AEC4, symSize: 0x3C }
  - { offsetInCU: 0x2B5BC, offset: 0x2B5BC, size: 0x8, addend: 0x0, symName: __ZNSt3__116allocator_traitsINS_9allocatorINS_11__tree_nodeINS_12__value_typeIciEEPvEEEEE9constructB8ue170006IKcJRSA_EvEEvRS7_PT_DpOT0_, symObjAddr: 0x39138, symBinAddr: 0x10003AF00, symSize: 0x34 }
  - { offsetInCU: 0x2B613, offset: 0x2B613, size: 0x8, addend: 0x0, symName: __ZNKSt3__110unique_ptrINS_11__tree_nodeINS_12__value_typeIciEEPvEENS_21__map_node_destructorINS_9allocatorIS5_EEEEEptB8ue170006Ev, symObjAddr: 0x3916C, symBinAddr: 0x10003AF34, symSize: 0x6C }
  - { offsetInCU: 0x2B639, offset: 0x2B639, size: 0x8, addend: 0x0, symName: __ZNSt3__110unique_ptrINS_11__tree_nodeINS_12__value_typeIciEEPvEENS_21__map_node_destructorINS_9allocatorIS5_EEEEE11get_deleterB8ue170006Ev, symObjAddr: 0x391D8, symBinAddr: 0x10003AFA0, symSize: 0x24 }
  - { offsetInCU: 0x2B65F, offset: 0x2B65F, size: 0x8, addend: 0x0, symName: __ZNSt3__116allocator_traitsINS_9allocatorINS_11__tree_nodeINS_12__value_typeIciEEPvEEEEE9constructB8ue170006IiJEvEEvRS7_PT_DpOT0_, symObjAddr: 0x391FC, symBinAddr: 0x10003AFC4, symSize: 0x2C }
  - { offsetInCU: 0x2B6A1, offset: 0x2B6A1, size: 0x8, addend: 0x0, symName: __ZNSt3__19allocatorINS_11__tree_nodeINS_12__value_typeIciEEPvEEE8allocateB8ue170006Em, symObjAddr: 0x39228, symBinAddr: 0x10003AFF0, symSize: 0x90 }
  - { offsetInCU: 0x2B6DF, offset: 0x2B6DF, size: 0x8, addend: 0x0, symName: __ZNSt3__116allocator_traitsINS_9allocatorINS_11__tree_nodeINS_12__value_typeIciEEPvEEEEE8max_sizeB8ue170006IS7_vEEmRKS7_, symObjAddr: 0x392B8, symBinAddr: 0x10003B080, symSize: 0x24 }
  - { offsetInCU: 0x2B70D, offset: 0x2B70D, size: 0x8, addend: 0x0, symName: __ZNKSt3__19allocatorINS_11__tree_nodeINS_12__value_typeIciEEPvEEE8max_sizeB8ue170006Ev, symObjAddr: 0x392DC, symBinAddr: 0x10003B0A4, symSize: 0x18 }
  - { offsetInCU: 0x2B733, offset: 0x2B733, size: 0x8, addend: 0x0, symName: __ZNSt3__121__map_node_destructorINS_9allocatorINS_11__tree_nodeINS_12__value_typeIciEEPvEEEEEC2B8ue170006ERS7_, symObjAddr: 0x392F4, symBinAddr: 0x10003B0BC, symSize: 0x12C }
  - { offsetInCU: 0x2B76C, offset: 0x2B76C, size: 0x8, addend: 0x0, symName: __ZNSt3__110unique_ptrINS_11__tree_nodeINS_12__value_typeIciEEPvEENS_21__map_node_destructorINS_9allocatorIS5_EEEEEC2B8ue170006ILb1EvEEPS5_NS_16__dependent_typeINS_27__unique_ptr_deleter_sfinaeIS9_EEXT_EE20__good_rval_ref_typeE, symObjAddr: 0x39420, symBinAddr: 0x10003B1E8, symSize: 0x230 }
  - { offsetInCU: 0x2B7C3, offset: 0x2B7C3, size: 0x8, addend: 0x0, symName: __ZNSt3__117__compressed_pairIPNS_11__tree_nodeINS_12__value_typeIciEEPvEENS_21__map_node_destructorINS_9allocatorIS5_EEEEEC1B8ue170006IRS6_SA_EEOT_OT0_, symObjAddr: 0x39650, symBinAddr: 0x10003B418, symSize: 0x3C }
  - { offsetInCU: 0x2B81B, offset: 0x2B81B, size: 0x8, addend: 0x0, symName: __ZNSt3__117__compressed_pairIPNS_11__tree_nodeINS_12__value_typeIciEEPvEENS_21__map_node_destructorINS_9allocatorIS5_EEEEEC2B8ue170006IRS6_SA_EEOT_OT0_, symObjAddr: 0x3968C, symBinAddr: 0x10003B454, symSize: 0x48 }
  - { offsetInCU: 0x2B873, offset: 0x2B873, size: 0x8, addend: 0x0, symName: __ZNSt3__122__compressed_pair_elemIPNS_11__tree_nodeINS_12__value_typeIciEEPvEELi0ELb0EEC2B8ue170006IRS6_vEEOT_, symObjAddr: 0x396D4, symBinAddr: 0x10003B49C, symSize: 0xB0 }
  - { offsetInCU: 0x2B8B5, offset: 0x2B8B5, size: 0x8, addend: 0x0, symName: __ZNSt3__122__compressed_pair_elemINS_21__map_node_destructorINS_9allocatorINS_11__tree_nodeINS_12__value_typeIciEEPvEEEEEELi1ELb0EEC2B8ue170006IS9_vEEOT_, symObjAddr: 0x39784, symBinAddr: 0x10003B54C, symSize: 0x38 }
  - { offsetInCU: 0x2B8F7, offset: 0x2B8F7, size: 0x8, addend: 0x0, symName: __ZNSt3__19allocatorINS_11__tree_nodeINS_12__value_typeIciEEPvEEE9constructB8ue170006IKcJRS8_EEEvPT_DpOT0_, symObjAddr: 0x397BC, symBinAddr: 0x10003B584, symSize: 0xFC }
  - { offsetInCU: 0x2B94D, offset: 0x2B94D, size: 0x8, addend: 0x0, symName: __ZNKSt3__117__compressed_pairIPNS_11__tree_nodeINS_12__value_typeIciEEPvEENS_21__map_node_destructorINS_9allocatorIS5_EEEEE5firstB8ue170006Ev, symObjAddr: 0x398B8, symBinAddr: 0x10003B680, symSize: 0x24 }
  - { offsetInCU: 0x2B973, offset: 0x2B973, size: 0x8, addend: 0x0, symName: __ZNKSt3__122__compressed_pair_elemIPNS_11__tree_nodeINS_12__value_typeIciEEPvEELi0ELb0EE5__getB8ue170006Ev, symObjAddr: 0x398DC, symBinAddr: 0x10003B6A4, symSize: 0x14 }
  - { offsetInCU: 0x2B999, offset: 0x2B999, size: 0x8, addend: 0x0, symName: __ZNSt3__117__compressed_pairIPNS_11__tree_nodeINS_12__value_typeIciEEPvEENS_21__map_node_destructorINS_9allocatorIS5_EEEEE6secondB8ue170006Ev, symObjAddr: 0x398F0, symBinAddr: 0x10003B6B8, symSize: 0x28 }
  - { offsetInCU: 0x2B9BF, offset: 0x2B9BF, size: 0x8, addend: 0x0, symName: __ZNSt3__122__compressed_pair_elemINS_21__map_node_destructorINS_9allocatorINS_11__tree_nodeINS_12__value_typeIciEEPvEEEEEELi1ELb0EE5__getB8ue170006Ev, symObjAddr: 0x39918, symBinAddr: 0x10003B6E0, symSize: 0x14 }
  - { offsetInCU: 0x2B9E5, offset: 0x2B9E5, size: 0x8, addend: 0x0, symName: __ZNSt3__19allocatorINS_11__tree_nodeINS_12__value_typeIciEEPvEEE9constructB8ue170006IiJEEEvPT_DpOT0_, symObjAddr: 0x3992C, symBinAddr: 0x10003B6F4, symSize: 0x8C }
  - { offsetInCU: 0x2BA27, offset: 0x2BA27, size: 0x8, addend: 0x0, symName: __ZNSt3__16__treeINS_12__value_typeIciEENS_19__map_value_compareIcS2_NS_4lessIcEELb1EEENS_9allocatorIS2_EEE4sizeB8ue170006Ev, symObjAddr: 0x399B8, symBinAddr: 0x10003B780, symSize: 0x28 }
  - { offsetInCU: 0x2BA4D, offset: 0x2BA4D, size: 0x8, addend: 0x0, symName: __ZNSt3__117__compressed_pairImNS_19__map_value_compareIcNS_12__value_typeIciEENS_4lessIcEELb1EEEE5firstB8ue170006Ev, symObjAddr: 0x399E0, symBinAddr: 0x10003B7A8, symSize: 0x24 }
  - { offsetInCU: 0x2BA73, offset: 0x2BA73, size: 0x8, addend: 0x0, symName: __ZNSt3__117__compressed_pairIPNS_11__tree_nodeINS_12__value_typeIciEEPvEENS_21__map_node_destructorINS_9allocatorIS5_EEEEE5firstB8ue170006Ev, symObjAddr: 0x39A04, symBinAddr: 0x10003B7CC, symSize: 0x24 }
  - { offsetInCU: 0x2BA99, offset: 0x2BA99, size: 0x8, addend: 0x0, symName: __ZNSt3__122__compressed_pair_elemIPNS_11__tree_nodeINS_12__value_typeIciEEPvEELi0ELb0EE5__getB8ue170006Ev, symObjAddr: 0x39A28, symBinAddr: 0x10003B7F0, symSize: 0x14 }
  - { offsetInCU: 0x2BABF, offset: 0x2BABF, size: 0x8, addend: 0x0, symName: __ZNSt3__110unique_ptrINS_11__tree_nodeINS_12__value_typeIciEEPvEENS_21__map_node_destructorINS_9allocatorIS5_EEEEED2B8ue170006Ev, symObjAddr: 0x39A3C, symBinAddr: 0x10003B804, symSize: 0x30 }
  - { offsetInCU: 0x2BAE9, offset: 0x2BAE9, size: 0x8, addend: 0x0, symName: __ZNSt3__110unique_ptrINS_11__tree_nodeINS_12__value_typeIciEEPvEENS_21__map_node_destructorINS_9allocatorIS5_EEEEE5resetB8ue170006EPS5_, symObjAddr: 0x39A6C, symBinAddr: 0x10003B834, symSize: 0xEC }
  - { offsetInCU: 0x2BB2D, offset: 0x2BB2D, size: 0x8, addend: 0x0, symName: __ZNSt3__121__map_node_destructorINS_9allocatorINS_11__tree_nodeINS_12__value_typeIciEEPvEEEEEclB8ue170006EPS6_, symObjAddr: 0x39B58, symBinAddr: 0x10003B920, symSize: 0x23C }
  - { offsetInCU: 0x2BB62, offset: 0x2BB62, size: 0x8, addend: 0x0, symName: __ZNSt3__116allocator_traitsINS_9allocatorINS_11__tree_nodeINS_12__value_typeIciEEPvEEEEE7destroyB8ue170006IivvEEvRS7_PT_, symObjAddr: 0x39D94, symBinAddr: 0x10003BB5C, symSize: 0x14 }
  - { offsetInCU: 0x2BB9C, offset: 0x2BB9C, size: 0x8, addend: 0x0, symName: __ZNSt3__116allocator_traitsINS_9allocatorINS_11__tree_nodeINS_12__value_typeIciEEPvEEEEE7destroyB8ue170006IKcvvEEvRS7_PT_, symObjAddr: 0x39DA8, symBinAddr: 0x10003BB70, symSize: 0x14 }
  - { offsetInCU: 0x2BBD6, offset: 0x2BBD6, size: 0x8, addend: 0x0, symName: __ZNSt3__15dequeIcNS_9allocatorIcEEE9push_backERKc, symObjAddr: 0x39DBC, symBinAddr: 0x10003BB84, symSize: 0x2CC }
  - { offsetInCU: 0x2BC1F, offset: 0x2BC1F, size: 0x8, addend: 0x0, symName: __ZNKSt3__15dequeIcNS_9allocatorIcEEE12__back_spareB8ue170006Ev, symObjAddr: 0x3A088, symBinAddr: 0x10003BE50, symSize: 0x90 }
  - { offsetInCU: 0x2BC45, offset: 0x2BC45, size: 0x8, addend: 0x0, symName: __ZNSt3__15dequeIcNS_9allocatorIcEEE19__add_back_capacityEv, symObjAddr: 0x3A118, symBinAddr: 0x10003BEE0, symSize: 0xA54 }
  - { offsetInCU: 0x2BCFD, offset: 0x2BCFD, size: 0x8, addend: 0x0, symName: __ZNKSt3__15dequeIcNS_9allocatorIcEEE24__annotate_increase_backB8ue170006Em, symObjAddr: 0x3AB6C, symBinAddr: 0x10003C934, symSize: 0xEC }
  - { offsetInCU: 0x2BD32, offset: 0x2BD32, size: 0x8, addend: 0x0, symName: __ZNSt3__116allocator_traitsINS_9allocatorIcEEE9constructB8ue170006IcJRKcEvEEvRS2_PT_DpOT0_, symObjAddr: 0x3AC58, symBinAddr: 0x10003CA20, symSize: 0x34 }
  - { offsetInCU: 0x2BD89, offset: 0x2BD89, size: 0x8, addend: 0x0, symName: __ZNKSt3__15dequeIcNS_9allocatorIcEEE10__capacityB8ue170006Ev, symObjAddr: 0x3AC8C, symBinAddr: 0x10003CA54, symSize: 0x60 }
  - { offsetInCU: 0x2BDAF, offset: 0x2BDAF, size: 0x8, addend: 0x0, symName: __ZNKSt3__15dequeIcNS_9allocatorIcEEE13__front_spareB8ue170006Ev, symObjAddr: 0x3ACEC, symBinAddr: 0x10003CAB4, symSize: 0x64 }
  - { offsetInCU: 0x2BDD5, offset: 0x2BDD5, size: 0x8, addend: 0x0, symName: __ZNSt3__114__split_bufferIPcNS_9allocatorIS1_EEE9push_backB8ue170006ERKS1_, symObjAddr: 0x3AD50, symBinAddr: 0x10003CB18, symSize: 0xA60 }
  - { offsetInCU: 0x2BE54, offset: 0x2BE54, size: 0x8, addend: 0x0, symName: __ZNKSt3__114__split_bufferIPcNS_9allocatorIS1_EEE12__back_spareB8ue170006Ev, symObjAddr: 0x3B7B0, symBinAddr: 0x10003D578, symSize: 0xC0 }
  - { offsetInCU: 0x2BE7A, offset: 0x2BE7A, size: 0x8, addend: 0x0, symName: __ZNSt3__114__split_bufferIPcNS_9allocatorIS1_EEE9push_backEOS1_, symObjAddr: 0x3B870, symBinAddr: 0x10003D638, symSize: 0xA60 }
  - { offsetInCU: 0x2BEF9, offset: 0x2BEF9, size: 0x8, addend: 0x0, symName: __ZNSt3__114__split_bufferIPcNS_9allocatorIS1_EEE10push_frontEOS1_, symObjAddr: 0x3C2D0, symBinAddr: 0x10003E098, symSize: 0xA64 }
  - { offsetInCU: 0x2BF78, offset: 0x2BF78, size: 0x8, addend: 0x0, symName: __ZNSt3__114__split_bufferIPcRNS_9allocatorIS1_EEEC1EmmS4_, symObjAddr: 0x3CD34, symBinAddr: 0x10003EAFC, symSize: 0x44 }
  - { offsetInCU: 0x2BFD3, offset: 0x2BFD3, size: 0x8, addend: 0x0, symName: __ZNSt3__122__allocator_destructorINS_9allocatorIcEEEC1B8ue170006ERS2_m, symObjAddr: 0x3CD78, symBinAddr: 0x10003EB40, symSize: 0x3C }
  - { offsetInCU: 0x2C09D, offset: 0x2C09D, size: 0x8, addend: 0x0, symName: __ZNSt3__110unique_ptrIPcNS_22__allocator_destructorINS_9allocatorIcEEEEEC1B8ue170006ILb1EvEES1_NS_16__dependent_typeINS_27__unique_ptr_deleter_sfinaeIS5_EEXT_EE20__good_rval_ref_typeE, symObjAddr: 0x3CDB4, symBinAddr: 0x10003EB7C, symSize: 0x3C }
  - { offsetInCU: 0x2C0EE, offset: 0x2C0EE, size: 0x8, addend: 0x0, symName: __ZNSt3__114__split_bufferIPcRNS_9allocatorIS1_EEE9push_backEOS1_, symObjAddr: 0x3CDF0, symBinAddr: 0x10003EBB8, symSize: 0xA60 }
  - { offsetInCU: 0x2C16D, offset: 0x2C16D, size: 0x8, addend: 0x0, symName: __ZNKSt3__110unique_ptrIPcNS_22__allocator_destructorINS_9allocatorIcEEEEE3getB8ue170006Ev, symObjAddr: 0x3D850, symBinAddr: 0x10003F618, symSize: 0x6C }
  - { offsetInCU: 0x2C193, offset: 0x2C193, size: 0x8, addend: 0x0, symName: __ZNSt3__110unique_ptrIPcNS_22__allocator_destructorINS_9allocatorIcEEEEE7releaseB8ue170006Ev, symObjAddr: 0x3D8BC, symBinAddr: 0x10003F684, symSize: 0xB8 }
  - { offsetInCU: 0x2C1C8, offset: 0x2C1C8, size: 0x8, addend: 0x0, symName: __ZNSt3__114__split_bufferIPcRNS_9allocatorIS1_EEE10push_frontERKS1_, symObjAddr: 0x3D974, symBinAddr: 0x10003F73C, symSize: 0xA64 }
  - { offsetInCU: 0x2C247, offset: 0x2C247, size: 0x8, addend: 0x0, symName: __ZNSt3__114__split_bufferIPcNS_9allocatorIS1_EEE9__end_capB8ue170006Ev, symObjAddr: 0x3E50C, symBinAddr: 0x1000402D4, symSize: 0x28 }
  - { offsetInCU: 0x2C26D, offset: 0x2C26D, size: 0x8, addend: 0x0, symName: __ZNSt3__114__split_bufferIPcRNS_9allocatorIS1_EEE9__end_capB8ue170006Ev, symObjAddr: 0x3E534, symBinAddr: 0x1000402FC, symSize: 0x28 }
  - { offsetInCU: 0x2C293, offset: 0x2C293, size: 0x8, addend: 0x0, symName: __ZNSt3__110unique_ptrIPcNS_22__allocator_destructorINS_9allocatorIcEEEEED1B8ue170006Ev, symObjAddr: 0x3E55C, symBinAddr: 0x100040324, symSize: 0x2C }
  - { offsetInCU: 0x2C2BD, offset: 0x2C2BD, size: 0x8, addend: 0x0, symName: __ZNSt3__114__split_bufferIPcRNS_9allocatorIS1_EEED1Ev, symObjAddr: 0x3E588, symBinAddr: 0x100040350, symSize: 0x2C }
  - { offsetInCU: 0x2C2E9, offset: 0x2C2E9, size: 0x8, addend: 0x0, symName: __ZNSt3__114__split_bufferIPcRNS_9allocatorIS1_EEE18__construct_at_endINS_13move_iteratorIPS1_EEEENS_9enable_ifIXsr31__has_forward_iterator_categoryIT_EE5valueEvE4typeESB_SB_, symObjAddr: 0x3E808, symBinAddr: 0x1000405D0, symSize: 0x3D4 }
  - { offsetInCU: 0x2C33F, offset: 0x2C33F, size: 0x8, addend: 0x0, symName: __ZNSt3__113move_iteratorIPPcEC1B8ue170006ES2_, symObjAddr: 0x3EBDC, symBinAddr: 0x1000409A4, symSize: 0x34 }
  - { offsetInCU: 0x2C377, offset: 0x2C377, size: 0x8, addend: 0x0, symName: __ZNSt3__116allocator_traitsINS_9allocatorIPcEEE9constructB8ue170006IS2_JRKS2_EvEEvRS3_PT_DpOT0_, symObjAddr: 0x3EC10, symBinAddr: 0x1000409D8, symSize: 0x34 }
  - { offsetInCU: 0x2C3F2, offset: 0x2C3F2, size: 0x8, addend: 0x0, symName: __ZNKSt3__114__move_trivialclB8ue170006IPcS2_Li0EEENS_4pairIPT_PT0_EES5_S5_S7_, symObjAddr: 0x3F990, symBinAddr: 0x100041758, symSize: 0x230 }
  - { offsetInCU: 0x2C45E, offset: 0x2C45E, size: 0x8, addend: 0x0, symName: __ZNSt3__14pairIPPcS2_EC1B8ue170006ERKS2_S5_, symObjAddr: 0x404E8, symBinAddr: 0x1000422B0, symSize: 0x3C }
  - { offsetInCU: 0x2C4A4, offset: 0x2C4A4, size: 0x8, addend: 0x0, symName: __ZNSt3__14pairIPPcS2_EC2B8ue170006ERKS2_S5_, symObjAddr: 0x40524, symBinAddr: 0x1000422EC, symSize: 0x138 }
  - { offsetInCU: 0x2C4EA, offset: 0x2C4EA, size: 0x8, addend: 0x0, symName: __ZNSt3__118__unwrap_iter_implIPPcLb1EE8__unwrapB8ue170006ES2_, symObjAddr: 0x4065C, symBinAddr: 0x100042424, symSize: 0x24 }
  - { offsetInCU: 0x2C50D, offset: 0x2C50D, size: 0x8, addend: 0x0, symName: __ZNSt3__118__unwrap_iter_implIPPcLb1EE8__rewrapB8ue170006ES2_S2_, symObjAddr: 0x40680, symBinAddr: 0x100042448, symSize: 0x50 }
  - { offsetInCU: 0x2C53E, offset: 0x2C53E, size: 0x8, addend: 0x0, symName: __ZNSt3__114__split_bufferIPcRNS_9allocatorIS1_EEE28__construct_at_end_with_sizeINS_13move_iteratorIPS1_EEEEvT_m, symObjAddr: 0x406D0, symBinAddr: 0x100042498, symSize: 0x498 }
  - { offsetInCU: 0x2C5AE, offset: 0x2C5AE, size: 0x8, addend: 0x0, symName: __ZNSt3__114__split_bufferIPcRNS_9allocatorIS1_EEE21_ConstructTransactionC1B8ue170006EPPS1_m, symObjAddr: 0x40EB8, symBinAddr: 0x100042C80, symSize: 0x3C }
  - { offsetInCU: 0x2C5F4, offset: 0x2C5F4, size: 0x8, addend: 0x0, symName: __ZNSt3__116allocator_traitsINS_9allocatorIPcEEE9constructB8ue170006IS2_JS2_EvEEvRS3_PT_DpOT0_, symObjAddr: 0x40EF4, symBinAddr: 0x100042CBC, symSize: 0x34 }
  - { offsetInCU: 0x2C64B, offset: 0x2C64B, size: 0x8, addend: 0x0, symName: __ZNSt3__114__split_bufferIPcRNS_9allocatorIS1_EEE7__allocB8ue170006Ev, symObjAddr: 0x40F28, symBinAddr: 0x100042CF0, symSize: 0x28 }
  - { offsetInCU: 0x2C671, offset: 0x2C671, size: 0x8, addend: 0x0, symName: __ZNKSt3__113move_iteratorIPPcEdeB8ue170006Ev, symObjAddr: 0x40F50, symBinAddr: 0x100042D18, symSize: 0x60 }
  - { offsetInCU: 0x2C697, offset: 0x2C697, size: 0x8, addend: 0x0, symName: __ZNSt3__113move_iteratorIPPcEppB8ue170006Ev, symObjAddr: 0x40FB0, symBinAddr: 0x100042D78, symSize: 0x68 }
  - { offsetInCU: 0x2C6BD, offset: 0x2C6BD, size: 0x8, addend: 0x0, symName: __ZNSt3__114__split_bufferIPcRNS_9allocatorIS1_EEE21_ConstructTransactionD1B8ue170006Ev, symObjAddr: 0x41018, symBinAddr: 0x100042DE0, symSize: 0x2C }
  - { offsetInCU: 0x2C6E7, offset: 0x2C6E7, size: 0x8, addend: 0x0, symName: __ZNSt3__114__split_bufferIPcRNS_9allocatorIS1_EEE21_ConstructTransactionC2B8ue170006EPPS1_m, symObjAddr: 0x41044, symBinAddr: 0x100042E0C, symSize: 0x184 }
  - { offsetInCU: 0x2C72D, offset: 0x2C72D, size: 0x8, addend: 0x0, symName: __ZNSt3__19allocatorIPcE9constructB8ue170006IS1_JS1_EEEvPT_DpOT0_, symObjAddr: 0x411C8, symBinAddr: 0x100042F90, symSize: 0xB4 }
  - { offsetInCU: 0x2C783, offset: 0x2C783, size: 0x8, addend: 0x0, symName: __ZNSt3__117__compressed_pairIPPcRNS_9allocatorIS1_EEE6secondB8ue170006Ev, symObjAddr: 0x4127C, symBinAddr: 0x100043044, symSize: 0x28 }
  - { offsetInCU: 0x2C7A9, offset: 0x2C7A9, size: 0x8, addend: 0x0, symName: __ZNSt3__122__compressed_pair_elemIRNS_9allocatorIPcEELi1ELb0EE5__getB8ue170006Ev, symObjAddr: 0x412A4, symBinAddr: 0x10004306C, symSize: 0x60 }
  - { offsetInCU: 0x2C7CF, offset: 0x2C7CF, size: 0x8, addend: 0x0, symName: __ZNSt3__114__split_bufferIPcRNS_9allocatorIS1_EEE21_ConstructTransactionD2B8ue170006Ev, symObjAddr: 0x41304, symBinAddr: 0x1000430CC, symSize: 0xE0 }
  - { offsetInCU: 0x2C7F9, offset: 0x2C7F9, size: 0x8, addend: 0x0, symName: __ZNKSt3__113move_iteratorIPPcE4baseB8ue170006Ev, symObjAddr: 0x416A0, symBinAddr: 0x100043468, symSize: 0x60 }
  - { offsetInCU: 0x2C81F, offset: 0x2C81F, size: 0x8, addend: 0x0, symName: __ZNSt3__113move_iteratorIPPcEC2B8ue170006ES2_, symObjAddr: 0x41700, symBinAddr: 0x1000434C8, symSize: 0x70 }
  - { offsetInCU: 0x2C857, offset: 0x2C857, size: 0x8, addend: 0x0, symName: __ZNSt3__19allocatorIPcE9constructB8ue170006IS1_JRKS1_EEEvPT_DpOT0_, symObjAddr: 0x41770, symBinAddr: 0x100043538, symSize: 0xB4 }
  - { offsetInCU: 0x2C8B7, offset: 0x2C8B7, size: 0x8, addend: 0x0, symName: __ZNKSt3__123__move_backward_trivialclB8ue170006IPcS2_Li0EEENS_4pairIPT_PT0_EES5_S5_S7_, symObjAddr: 0x42474, symBinAddr: 0x10004423C, symSize: 0x230 }
  - { offsetInCU: 0x2C923, offset: 0x2C923, size: 0x8, addend: 0x0, symName: __ZNSt3__114__split_bufferIPcRNS_9allocatorIS1_EEEC2EmmS4_, symObjAddr: 0x42C8C, symBinAddr: 0x100044A54, symSize: 0x520 }
  - { offsetInCU: 0x2C99E, offset: 0x2C99E, size: 0x8, addend: 0x0, symName: __ZNSt3__117__compressed_pairIPPcRNS_9allocatorIS1_EEEC1B8ue170006IDnS5_EEOT_OT0_, symObjAddr: 0x431AC, symBinAddr: 0x100044F74, symSize: 0x3C }
  - { offsetInCU: 0x2C9F6, offset: 0x2C9F6, size: 0x8, addend: 0x0, symName: __ZNSt3__117__compressed_pairIPPcRNS_9allocatorIS1_EEEC2B8ue170006IDnS5_EEOT_OT0_, symObjAddr: 0x43474, symBinAddr: 0x10004523C, symSize: 0x48 }
  - { offsetInCU: 0x2CA4E, offset: 0x2CA4E, size: 0x8, addend: 0x0, symName: __ZNSt3__122__compressed_pair_elemIRNS_9allocatorIPcEELi1ELb0EEC2B8ue170006IS4_vEEOT_, symObjAddr: 0x434BC, symBinAddr: 0x100045284, symSize: 0x70 }
  - { offsetInCU: 0x2CA90, offset: 0x2CA90, size: 0x8, addend: 0x0, symName: __ZNSt3__19allocatorIPcE8allocateB8ue170006Em, symObjAddr: 0x4352C, symBinAddr: 0x1000452F4, symSize: 0x88 }
  - { offsetInCU: 0x2CACE, offset: 0x2CACE, size: 0x8, addend: 0x0, symName: __ZNSt3__116allocator_traitsINS_9allocatorIPcEEE8max_sizeB8ue170006IS3_vEEmRKS3_, symObjAddr: 0x435B4, symBinAddr: 0x10004537C, symSize: 0x24 }
  - { offsetInCU: 0x2CAFC, offset: 0x2CAFC, size: 0x8, addend: 0x0, symName: __ZNKSt3__19allocatorIPcE8max_sizeB8ue170006Ev, symObjAddr: 0x435D8, symBinAddr: 0x1000453A0, symSize: 0x14 }
  - { offsetInCU: 0x2CB22, offset: 0x2CB22, size: 0x8, addend: 0x0, symName: __ZNSt3__122__allocator_destructorINS_9allocatorIcEEEC2B8ue170006ERS2_m, symObjAddr: 0x435EC, symBinAddr: 0x1000453B4, symSize: 0xBC }
  - { offsetInCU: 0x2CB68, offset: 0x2CB68, size: 0x8, addend: 0x0, symName: __ZNSt3__110unique_ptrIPcNS_22__allocator_destructorINS_9allocatorIcEEEEEC2B8ue170006ILb1EvEES1_NS_16__dependent_typeINS_27__unique_ptr_deleter_sfinaeIS5_EEXT_EE20__good_rval_ref_typeE, symObjAddr: 0x436A8, symBinAddr: 0x100045470, symSize: 0x230 }
  - { offsetInCU: 0x2CBBF, offset: 0x2CBBF, size: 0x8, addend: 0x0, symName: __ZNSt3__117__compressed_pairIPcNS_22__allocator_destructorINS_9allocatorIcEEEEEC1B8ue170006IRS1_S5_EEOT_OT0_, symObjAddr: 0x438D8, symBinAddr: 0x1000456A0, symSize: 0x3C }
  - { offsetInCU: 0x2CC17, offset: 0x2CC17, size: 0x8, addend: 0x0, symName: __ZNSt3__117__compressed_pairIPcNS_22__allocator_destructorINS_9allocatorIcEEEEEC2B8ue170006IRS1_S5_EEOT_OT0_, symObjAddr: 0x43914, symBinAddr: 0x1000456DC, symSize: 0x48 }
  - { offsetInCU: 0x2CC6F, offset: 0x2CC6F, size: 0x8, addend: 0x0, symName: __ZNSt3__122__compressed_pair_elemIPcLi0ELb0EEC2B8ue170006IRS1_vEEOT_, symObjAddr: 0x4395C, symBinAddr: 0x100045724, symSize: 0xB0 }
  - { offsetInCU: 0x2CCB1, offset: 0x2CCB1, size: 0x8, addend: 0x0, symName: __ZNSt3__122__compressed_pair_elemINS_22__allocator_destructorINS_9allocatorIcEEEELi1ELb0EEC2B8ue170006IS4_vEEOT_, symObjAddr: 0x43A0C, symBinAddr: 0x1000457D4, symSize: 0x38 }
  - { offsetInCU: 0x2CCF3, offset: 0x2CCF3, size: 0x8, addend: 0x0, symName: __ZNKSt3__117__compressed_pairIPcNS_22__allocator_destructorINS_9allocatorIcEEEEE5firstB8ue170006Ev, symObjAddr: 0x43A44, symBinAddr: 0x10004580C, symSize: 0x24 }
  - { offsetInCU: 0x2CD19, offset: 0x2CD19, size: 0x8, addend: 0x0, symName: __ZNKSt3__122__compressed_pair_elemIPcLi0ELb0EE5__getB8ue170006Ev, symObjAddr: 0x43A68, symBinAddr: 0x100045830, symSize: 0x14 }
  - { offsetInCU: 0x2CD3F, offset: 0x2CD3F, size: 0x8, addend: 0x0, symName: __ZNSt3__117__compressed_pairIPcNS_22__allocator_destructorINS_9allocatorIcEEEEE5firstB8ue170006Ev, symObjAddr: 0x43A7C, symBinAddr: 0x100045844, symSize: 0x24 }
  - { offsetInCU: 0x2CD65, offset: 0x2CD65, size: 0x8, addend: 0x0, symName: __ZNSt3__122__compressed_pair_elemIPcLi0ELb0EE5__getB8ue170006Ev, symObjAddr: 0x43AA0, symBinAddr: 0x100045868, symSize: 0x14 }
  - { offsetInCU: 0x2CD8B, offset: 0x2CD8B, size: 0x8, addend: 0x0, symName: __ZNSt3__117__compressed_pairIPPcNS_9allocatorIS1_EEE5firstB8ue170006Ev, symObjAddr: 0x43AB4, symBinAddr: 0x10004587C, symSize: 0x24 }
  - { offsetInCU: 0x2CDB1, offset: 0x2CDB1, size: 0x8, addend: 0x0, symName: __ZNSt3__122__compressed_pair_elemIPPcLi0ELb0EE5__getB8ue170006Ev, symObjAddr: 0x43AD8, symBinAddr: 0x1000458A0, symSize: 0x14 }
  - { offsetInCU: 0x2CDD7, offset: 0x2CDD7, size: 0x8, addend: 0x0, symName: __ZNSt3__117__compressed_pairIPPcRNS_9allocatorIS1_EEE5firstB8ue170006Ev, symObjAddr: 0x43AEC, symBinAddr: 0x1000458B4, symSize: 0x24 }
  - { offsetInCU: 0x2CDFD, offset: 0x2CDFD, size: 0x8, addend: 0x0, symName: __ZNSt3__110unique_ptrIPcNS_22__allocator_destructorINS_9allocatorIcEEEEED2B8ue170006Ev, symObjAddr: 0x43B10, symBinAddr: 0x1000458D8, symSize: 0x30 }
  - { offsetInCU: 0x2CE27, offset: 0x2CE27, size: 0x8, addend: 0x0, symName: __ZNSt3__110unique_ptrIPcNS_22__allocator_destructorINS_9allocatorIcEEEEE5resetB8ue170006ES1_, symObjAddr: 0x43B40, symBinAddr: 0x100045908, symSize: 0xEC }
  - { offsetInCU: 0x2CE6B, offset: 0x2CE6B, size: 0x8, addend: 0x0, symName: __ZNSt3__117__compressed_pairIPcNS_22__allocator_destructorINS_9allocatorIcEEEEE6secondB8ue170006Ev, symObjAddr: 0x43C2C, symBinAddr: 0x1000459F4, symSize: 0x28 }
  - { offsetInCU: 0x2CE91, offset: 0x2CE91, size: 0x8, addend: 0x0, symName: __ZNSt3__122__allocator_destructorINS_9allocatorIcEEEclB8ue170006EPc, symObjAddr: 0x43C54, symBinAddr: 0x100045A1C, symSize: 0xB8 }
  - { offsetInCU: 0x2CEC5, offset: 0x2CEC5, size: 0x8, addend: 0x0, symName: __ZNSt3__122__compressed_pair_elemINS_22__allocator_destructorINS_9allocatorIcEEEELi1ELb0EE5__getB8ue170006Ev, symObjAddr: 0x43D0C, symBinAddr: 0x100045AD4, symSize: 0x14 }
  - { offsetInCU: 0x2CEEB, offset: 0x2CEEB, size: 0x8, addend: 0x0, symName: __ZNSt3__114__split_bufferIPcRNS_9allocatorIS1_EEED2Ev, symObjAddr: 0x43D20, symBinAddr: 0x100045AE8, symSize: 0xEC }
  - { offsetInCU: 0x2CF17, offset: 0x2CF17, size: 0x8, addend: 0x0, symName: __ZNSt3__114__split_bufferIPcRNS_9allocatorIS1_EEE5clearB8ue170006Ev, symObjAddr: 0x43E0C, symBinAddr: 0x100045BD4, symSize: 0x68 }
  - { offsetInCU: 0x2CF3D, offset: 0x2CF3D, size: 0x8, addend: 0x0, symName: __ZNKSt3__114__split_bufferIPcRNS_9allocatorIS1_EEE8capacityB8ue170006Ev, symObjAddr: 0x43E74, symBinAddr: 0x100045C3C, symSize: 0xBC }
  - { offsetInCU: 0x2CF63, offset: 0x2CF63, size: 0x8, addend: 0x0, symName: __ZNSt3__114__split_bufferIPcRNS_9allocatorIS1_EEE17__destruct_at_endB8ue170006EPS1_, symObjAddr: 0x43F30, symBinAddr: 0x100045CF8, symSize: 0x2C }
  - { offsetInCU: 0x2CF97, offset: 0x2CF97, size: 0x8, addend: 0x0, symName: __ZNSt3__114__split_bufferIPcRNS_9allocatorIS1_EEE17__destruct_at_endB8ue170006EPS1_NS_17integral_constantIbLb0EEE, symObjAddr: 0x43F5C, symBinAddr: 0x100045D24, symSize: 0x120 }
  - { offsetInCU: 0x2CFD7, offset: 0x2CFD7, size: 0x8, addend: 0x0, symName: __ZNKSt3__114__split_bufferIPcRNS_9allocatorIS1_EEE9__end_capB8ue170006Ev, symObjAddr: 0x4407C, symBinAddr: 0x100045E44, symSize: 0x28 }
  - { offsetInCU: 0x2CFFD, offset: 0x2CFFD, size: 0x8, addend: 0x0, symName: __ZNKSt3__117__compressed_pairIPPcRNS_9allocatorIS1_EEE5firstB8ue170006Ev, symObjAddr: 0x440A4, symBinAddr: 0x100045E6C, symSize: 0x24 }
  - { offsetInCU: 0x2D023, offset: 0x2D023, size: 0x8, addend: 0x0, symName: __ZNSt3__19allocatorIcE9constructB8ue170006IcJRKcEEEvPT_DpOT0_, symObjAddr: 0x440C8, symBinAddr: 0x100045E90, symSize: 0xFC }
  - { offsetInCU: 0x2D079, offset: 0x2D079, size: 0x8, addend: 0x0, symName: __ZNSt3__15dequeIcNS_9allocatorIcEEE4backEv, symObjAddr: 0x441C4, symBinAddr: 0x100045F8C, symSize: 0xEC }
  - { offsetInCU: 0x2D0B0, offset: 0x2D0B0, size: 0x8, addend: 0x0, symName: __ZNSt3__15dequeIcNS_9allocatorIcEEE8pop_backEv, symObjAddr: 0x442B0, symBinAddr: 0x100046078, symSize: 0x1C4 }
  - { offsetInCU: 0x2D114, offset: 0x2D114, size: 0x8, addend: 0x0, symName: __ZNKSt3__15dequeIcNS_9allocatorIcEEE22__annotate_shrink_backB8ue170006Emm, symObjAddr: 0x44474, symBinAddr: 0x10004623C, symSize: 0x60 }
  - { offsetInCU: 0x2D158, offset: 0x2D158, size: 0x8, addend: 0x0, symName: __ZNSt3__15dequeIcNS_9allocatorIcEEE25__maybe_remove_back_spareB8ue170006Eb, symObjAddr: 0x444D4, symBinAddr: 0x10004629C, symSize: 0x128 }
  - { offsetInCU: 0x2D18D, offset: 0x2D18D, size: 0x8, addend: 0x0, symName: __ZNKSt3__15dequeIcNS_9allocatorIcEEE19__back_spare_blocksB8ue170006Ev, symObjAddr: 0x445FC, symBinAddr: 0x1000463C4, symSize: 0x2C }
  - { offsetInCU: 0x2D1B3, offset: 0x2D1B3, size: 0x8, addend: 0x0, symName: __ZNSt3__114__split_bufferIPcNS_9allocatorIS1_EEE4backB8ue170006Ev, symObjAddr: 0x44628, symBinAddr: 0x1000463F0, symSize: 0x68 }
  - { offsetInCU: 0x2D1D9, offset: 0x2D1D9, size: 0x8, addend: 0x0, symName: __ZNSt3__114__split_bufferIPcNS_9allocatorIS1_EEE8pop_backB8ue170006Ev, symObjAddr: 0x44690, symBinAddr: 0x100046458, symSize: 0x6C }
  - { offsetInCU: 0x2D1FF, offset: 0x2D1FF, size: 0x8, addend: 0x0, symName: __ZNSt3__16__treeINS_12__value_typeIciEENS_19__map_value_compareIcS2_NS_4lessIcEELb1EEENS_9allocatorIS2_EEE4findIcEENS_15__tree_iteratorIS2_PNS_11__tree_nodeIS2_PvEElEERKT_, symObjAddr: 0x446FC, symBinAddr: 0x1000464C4, symSize: 0x3FC }
  - { offsetInCU: 0x2D254, offset: 0x2D254, size: 0x8, addend: 0x0, symName: __ZNSt3__114__map_iteratorINS_15__tree_iteratorINS_12__value_typeIciEEPNS_11__tree_nodeIS3_PvEElEEEC1B8ue170006ES8_, symObjAddr: 0x44AF8, symBinAddr: 0x1000468C0, symSize: 0x238 }
  - { offsetInCU: 0x2D292, offset: 0x2D292, size: 0x8, addend: 0x0, symName: __ZNSt3__16__treeINS_12__value_typeIciEENS_19__map_value_compareIcS2_NS_4lessIcEELb1EEENS_9allocatorIS2_EEE13__lower_boundIcEENS_15__tree_iteratorIS2_PNS_11__tree_nodeIS2_PvEElEERKT_SF_PNS_15__tree_end_nodeIPNS_16__tree_node_baseISD_EEEE, symObjAddr: 0x44D30, symBinAddr: 0x100046AF8, symSize: 0x2E0 }
  - { offsetInCU: 0x2D2F4, offset: 0x2D2F4, size: 0x8, addend: 0x0, symName: __ZNSt3__16__treeINS_12__value_typeIciEENS_19__map_value_compareIcS2_NS_4lessIcEELb1EEENS_9allocatorIS2_EEE3endB8ue170006Ev, symObjAddr: 0x45044, symBinAddr: 0x100046E0C, symSize: 0x204 }
  - { offsetInCU: 0x2D31B, offset: 0x2D31B, size: 0x8, addend: 0x0, symName: __ZNKSt3__115__tree_iteratorINS_12__value_typeIciEEPNS_11__tree_nodeIS2_PvEElEdeB8ue170006Ev, symObjAddr: 0x45248, symBinAddr: 0x100047010, symSize: 0x28 }
  - { offsetInCU: 0x2D341, offset: 0x2D341, size: 0x8, addend: 0x0, symName: __ZNSt3__115__tree_iteratorINS_12__value_typeIciEEPNS_11__tree_nodeIS2_PvEElEC1B8ue170006EPNS_15__tree_end_nodeIPNS_16__tree_node_baseIS4_EEEE, symObjAddr: 0x45270, symBinAddr: 0x100047038, symSize: 0x34 }
  - { offsetInCU: 0x2D37A, offset: 0x2D37A, size: 0x8, addend: 0x0, symName: __ZNSt3__115__tree_iteratorINS_12__value_typeIciEEPNS_11__tree_nodeIS2_PvEElEC2B8ue170006EPNS_15__tree_end_nodeIPNS_16__tree_node_baseIS4_EEEE, symObjAddr: 0x452A4, symBinAddr: 0x10004706C, symSize: 0x70 }
  - { offsetInCU: 0x2D3B3, offset: 0x2D3B3, size: 0x8, addend: 0x0, symName: __ZNKSt3__115__tree_iteratorINS_12__value_typeIciEEPNS_11__tree_nodeIS2_PvEElE8__get_npB8ue170006Ev, symObjAddr: 0x453CC, symBinAddr: 0x100047194, symSize: 0x60 }
  - { offsetInCU: 0x2D3D9, offset: 0x2D3D9, size: 0x8, addend: 0x0, symName: __ZNSt3__114__map_iteratorINS_15__tree_iteratorINS_12__value_typeIciEEPNS_11__tree_nodeIS3_PvEElEEEC2B8ue170006ES8_, symObjAddr: 0x4542C, symBinAddr: 0x1000471F4, symSize: 0x204 }
  - { offsetInCU: 0x2D417, offset: 0x2D417, size: 0x8, addend: 0x0, symName: __ZNSt3__16vectorIP5StateNS_9allocatorIS2_EEEC2B8ue170006Ev, symObjAddr: 0x45630, symBinAddr: 0x1000473F8, symSize: 0x2D4 }
  - { offsetInCU: 0x2D442, offset: 0x2D442, size: 0x8, addend: 0x0, symName: __ZNSt3__117__compressed_pairIPP5StateNS_9allocatorIS2_EEEC1B8ue170006IDnNS_18__default_init_tagEEEOT_OT0_, symObjAddr: 0x45904, symBinAddr: 0x1000476CC, symSize: 0x3C }
  - { offsetInCU: 0x2D49A, offset: 0x2D49A, size: 0x8, addend: 0x0, symName: __ZNSt3__117__compressed_pairIPP5StateNS_9allocatorIS2_EEEC2B8ue170006IDnNS_18__default_init_tagEEEOT_OT0_, symObjAddr: 0x45940, symBinAddr: 0x100047708, symSize: 0x40 }
  - { offsetInCU: 0x2D4F2, offset: 0x2D4F2, size: 0x8, addend: 0x0, symName: __ZNSt3__122__compressed_pair_elemIPP5StateLi0ELb0EEC2B8ue170006IDnvEEOT_, symObjAddr: 0x45980, symBinAddr: 0x100047748, symSize: 0x64 }
  - { offsetInCU: 0x2D534, offset: 0x2D534, size: 0x8, addend: 0x0, symName: __ZNSt3__122__compressed_pair_elemINS_9allocatorIP5StateEELi1ELb1EEC2B8ue170006ENS_18__default_init_tagE, symObjAddr: 0x459E4, symBinAddr: 0x1000477AC, symSize: 0x2C }
  - { offsetInCU: 0x2D568, offset: 0x2D568, size: 0x8, addend: 0x0, symName: __ZNSt3__19allocatorIP5StateEC2B8ue170006Ev, symObjAddr: 0x45A10, symBinAddr: 0x1000477D8, symSize: 0x2C }
  - { offsetInCU: 0x2D592, offset: 0x2D592, size: 0x8, addend: 0x0, symName: __ZNSt3__116__non_trivial_ifILb1ENS_9allocatorIP5StateEEEC2B8ue170006Ev, symObjAddr: 0x45A3C, symBinAddr: 0x100047804, symSize: 0x14 }
  - { offsetInCU: 0x2D5BC, offset: 0x2D5BC, size: 0x8, addend: 0x0, symName: __ZNSt3__16vectorIP5StateNS_9allocatorIS2_EEED2B8ue170006Ev, symObjAddr: 0x45A50, symBinAddr: 0x100047818, symSize: 0x1E0 }
  - { offsetInCU: 0x2D5E7, offset: 0x2D5E7, size: 0x8, addend: 0x0, symName: __ZNSt3__16vectorIP5StateNS_9allocatorIS2_EEE16__destroy_vectorC1B8ue170006ERS5_, symObjAddr: 0x45C30, symBinAddr: 0x1000479F8, symSize: 0x34 }
  - { offsetInCU: 0x2D620, offset: 0x2D620, size: 0x8, addend: 0x0, symName: __ZNSt3__16vectorIP5StateNS_9allocatorIS2_EEE16__destroy_vectorclB8ue170006Ev, symObjAddr: 0x45C64, symBinAddr: 0x100047A2C, symSize: 0x228 }
  - { offsetInCU: 0x2D646, offset: 0x2D646, size: 0x8, addend: 0x0, symName: __ZNSt3__16vectorIP5StateNS_9allocatorIS2_EEE16__destroy_vectorC2B8ue170006ERS5_, symObjAddr: 0x45E8C, symBinAddr: 0x100047C54, symSize: 0x70 }
  - { offsetInCU: 0x2D67F, offset: 0x2D67F, size: 0x8, addend: 0x0, symName: __ZNSt3__16vectorIP5StateNS_9allocatorIS2_EEE7__clearB8ue170006Ev, symObjAddr: 0x45EFC, symBinAddr: 0x100047CC4, symSize: 0x64 }
  - { offsetInCU: 0x2D6A5, offset: 0x2D6A5, size: 0x8, addend: 0x0, symName: __ZNKSt3__16vectorIP5StateNS_9allocatorIS2_EEE17__annotate_deleteB8ue170006Ev, symObjAddr: 0x45F60, symBinAddr: 0x100047D28, symSize: 0xE0 }
  - { offsetInCU: 0x2D6CB, offset: 0x2D6CB, size: 0x8, addend: 0x0, symName: __ZNSt3__116allocator_traitsINS_9allocatorIP5StateEEE10deallocateB8ue170006ERS4_PS3_m, symObjAddr: 0x46040, symBinAddr: 0x100047E08, symSize: 0x34 }
  - { offsetInCU: 0x2D70D, offset: 0x2D70D, size: 0x8, addend: 0x0, symName: __ZNSt3__16vectorIP5StateNS_9allocatorIS2_EEE7__allocB8ue170006Ev, symObjAddr: 0x46074, symBinAddr: 0x100047E3C, symSize: 0x28 }
  - { offsetInCU: 0x2D733, offset: 0x2D733, size: 0x8, addend: 0x0, symName: __ZNKSt3__16vectorIP5StateNS_9allocatorIS2_EEE8capacityB8ue170006Ev, symObjAddr: 0x4609C, symBinAddr: 0x100047E64, symSize: 0xBC }
  - { offsetInCU: 0x2D759, offset: 0x2D759, size: 0x8, addend: 0x0, symName: __ZNSt3__16vectorIP5StateNS_9allocatorIS2_EEE22__base_destruct_at_endB8ue170006EPS2_, symObjAddr: 0x46158, symBinAddr: 0x100047F20, symSize: 0x128 }
  - { offsetInCU: 0x2D79D, offset: 0x2D79D, size: 0x8, addend: 0x0, symName: __ZNSt3__116allocator_traitsINS_9allocatorIP5StateEEE7destroyB8ue170006IS3_vEEvRS4_PT_, symObjAddr: 0x46280, symBinAddr: 0x100048048, symSize: 0x2C }
  - { offsetInCU: 0x2D7DA, offset: 0x2D7DA, size: 0x8, addend: 0x0, symName: __ZNSt3__19allocatorIP5StateE7destroyB8ue170006EPS2_, symObjAddr: 0x462C0, symBinAddr: 0x100048088, symSize: 0x14 }
  - { offsetInCU: 0x2D80E, offset: 0x2D80E, size: 0x8, addend: 0x0, symName: __ZNKSt3__16vectorIP5StateNS_9allocatorIS2_EEE31__annotate_contiguous_containerEPKvS7_S7_S7_, symObjAddr: 0x462D4, symBinAddr: 0x10004809C, symSize: 0x64 }
  - { offsetInCU: 0x2D870, offset: 0x2D870, size: 0x8, addend: 0x0, symName: __ZNKSt3__16vectorIP5StateNS_9allocatorIS2_EEE4dataB8ue170006Ev, symObjAddr: 0x46338, symBinAddr: 0x100048100, symSize: 0x64 }
  - { offsetInCU: 0x2D896, offset: 0x2D896, size: 0x8, addend: 0x0, symName: __ZNSt3__19allocatorIP5StateE10deallocateB8ue170006EPS2_m, symObjAddr: 0x4639C, symBinAddr: 0x100048164, symSize: 0x7C }
  - { offsetInCU: 0x2D8D8, offset: 0x2D8D8, size: 0x8, addend: 0x0, symName: __ZNSt3__117__compressed_pairIPP5StateNS_9allocatorIS2_EEE6secondB8ue170006Ev, symObjAddr: 0x46418, symBinAddr: 0x1000481E0, symSize: 0x24 }
  - { offsetInCU: 0x2D8FE, offset: 0x2D8FE, size: 0x8, addend: 0x0, symName: __ZNSt3__122__compressed_pair_elemINS_9allocatorIP5StateEELi1ELb1EE5__getB8ue170006Ev, symObjAddr: 0x4643C, symBinAddr: 0x100048204, symSize: 0x14 }
  - { offsetInCU: 0x2D924, offset: 0x2D924, size: 0x8, addend: 0x0, symName: __ZNKSt3__16vectorIP5StateNS_9allocatorIS2_EEE9__end_capB8ue170006Ev, symObjAddr: 0x46450, symBinAddr: 0x100048218, symSize: 0x28 }
  - { offsetInCU: 0x2D94A, offset: 0x2D94A, size: 0x8, addend: 0x0, symName: __ZNKSt3__117__compressed_pairIPP5StateNS_9allocatorIS2_EEE5firstB8ue170006Ev, symObjAddr: 0x46478, symBinAddr: 0x100048240, symSize: 0x24 }
  - { offsetInCU: 0x2D970, offset: 0x2D970, size: 0x8, addend: 0x0, symName: __ZNKSt3__122__compressed_pair_elemIPP5StateLi0ELb0EE5__getB8ue170006Ev, symObjAddr: 0x4649C, symBinAddr: 0x100048264, symSize: 0x14 }
  - { offsetInCU: 0x2D996, offset: 0x2D996, size: 0x8, addend: 0x0, symName: __ZNSt3__16vectorIP5StateNS_9allocatorIS2_EEE9__end_capB8ue170006Ev, symObjAddr: 0x464B0, symBinAddr: 0x100048278, symSize: 0x28 }
  - { offsetInCU: 0x2D9BC, offset: 0x2D9BC, size: 0x8, addend: 0x0, symName: __ZNSt3__16vectorIP5StateNS_9allocatorIS2_EEE22__construct_one_at_endB8ue170006IJRKS2_EEEvDpOT_, symObjAddr: 0x464D8, symBinAddr: 0x1000482A0, symSize: 0x380 }
  - { offsetInCU: 0x2DA11, offset: 0x2DA11, size: 0x8, addend: 0x0, symName: __ZNSt3__16vectorIP5StateNS_9allocatorIS2_EEE21__push_back_slow_pathIRKS2_EEvOT_, symObjAddr: 0x46858, symBinAddr: 0x100048620, symSize: 0x3D4 }
  - { offsetInCU: 0x2DA76, offset: 0x2DA76, size: 0x8, addend: 0x0, symName: __ZNSt3__117__compressed_pairIPP5StateNS_9allocatorIS2_EEE5firstB8ue170006Ev, symObjAddr: 0x46C2C, symBinAddr: 0x1000489F4, symSize: 0x24 }
  - { offsetInCU: 0x2DA9C, offset: 0x2DA9C, size: 0x8, addend: 0x0, symName: __ZNSt3__122__compressed_pair_elemIPP5StateLi0ELb0EE5__getB8ue170006Ev, symObjAddr: 0x46C50, symBinAddr: 0x100048A18, symSize: 0x14 }
  - { offsetInCU: 0x2DADB, offset: 0x2DADB, size: 0x8, addend: 0x0, symName: __ZNSt3__16vectorIP5StateNS_9allocatorIS2_EEE21_ConstructTransactionC1B8ue170006ERS5_m, symObjAddr: 0x46C64, symBinAddr: 0x100048A2C, symSize: 0x3C }
  - { offsetInCU: 0x2DB23, offset: 0x2DB23, size: 0x8, addend: 0x0, symName: __ZNSt3__116allocator_traitsINS_9allocatorIP5StateEEE9constructB8ue170006IS3_JRKS3_EvEEvRS4_PT_DpOT0_, symObjAddr: 0x46CA0, symBinAddr: 0x100048A68, symSize: 0x34 }
  - { offsetInCU: 0x2DB7A, offset: 0x2DB7A, size: 0x8, addend: 0x0, symName: __ZNSt3__16vectorIP5StateNS_9allocatorIS2_EEE21_ConstructTransactionD1B8ue170006Ev, symObjAddr: 0x46CD4, symBinAddr: 0x100048A9C, symSize: 0x2C }
  - { offsetInCU: 0x2DBA4, offset: 0x2DBA4, size: 0x8, addend: 0x0, symName: __ZNSt3__16vectorIP5StateNS_9allocatorIS2_EEE21_ConstructTransactionC2B8ue170006ERS5_m, symObjAddr: 0x46D00, symBinAddr: 0x100048AC8, symSize: 0x1D0 }
  - { offsetInCU: 0x2DBEC, offset: 0x2DBEC, size: 0x8, addend: 0x0, symName: __ZNKSt3__16vectorIP5StateNS_9allocatorIS2_EEE19__annotate_increaseB8ue170006Em, symObjAddr: 0x46ED0, symBinAddr: 0x100048C98, symSize: 0xEC }
  - { offsetInCU: 0x2DC21, offset: 0x2DC21, size: 0x8, addend: 0x0, symName: __ZNSt3__19allocatorIP5StateE9constructB8ue170006IS2_JRKS2_EEEvPT_DpOT0_, symObjAddr: 0x46FBC, symBinAddr: 0x100048D84, symSize: 0xB4 }
  - { offsetInCU: 0x2DC77, offset: 0x2DC77, size: 0x8, addend: 0x0, symName: __ZNSt3__16vectorIP5StateNS_9allocatorIS2_EEE21_ConstructTransactionD2B8ue170006Ev, symObjAddr: 0x47070, symBinAddr: 0x100048E38, symSize: 0x278 }
  - { offsetInCU: 0x2DCA1, offset: 0x2DCA1, size: 0x8, addend: 0x0, symName: __ZNKSt3__16vectorIP5StateNS_9allocatorIS2_EEE17__annotate_shrinkB8ue170006Em, symObjAddr: 0x472E8, symBinAddr: 0x1000490B0, symSize: 0xDC }
  - { offsetInCU: 0x2DCD6, offset: 0x2DCD6, size: 0x8, addend: 0x0, symName: __ZNKSt3__16vectorIP5StateNS_9allocatorIS2_EEE11__recommendB8ue170006Em, symObjAddr: 0x473C4, symBinAddr: 0x10004918C, symSize: 0x384 }
  - { offsetInCU: 0x2DD32, offset: 0x2DD32, size: 0x8, addend: 0x0, symName: __ZNSt3__114__split_bufferIP5StateRNS_9allocatorIS2_EEEC1EmmS5_, symObjAddr: 0x47748, symBinAddr: 0x100049510, symSize: 0x44 }
  - { offsetInCU: 0x2DD88, offset: 0x2DD88, size: 0x8, addend: 0x0, symName: __ZNSt3__114__split_bufferIP5StateRNS_9allocatorIS2_EEED1Ev, symObjAddr: 0x47CF8, symBinAddr: 0x100049AC0, symSize: 0x2C }
  - { offsetInCU: 0x2DDB4, offset: 0x2DDB4, size: 0x8, addend: 0x0, symName: __ZNKSt3__16vectorIP5StateNS_9allocatorIS2_EEE8max_sizeEv, symObjAddr: 0x47D24, symBinAddr: 0x100049AEC, symSize: 0x328 }
  - { offsetInCU: 0x2DDDD, offset: 0x2DDDD, size: 0x8, addend: 0x0, symName: __ZNKSt3__16vectorIP5StateNS_9allocatorIS2_EEE20__throw_length_errorB8ue170006Ev, symObjAddr: 0x4804C, symBinAddr: 0x100049E14, symSize: 0x20 }
  - { offsetInCU: 0x2DE0D, offset: 0x2DE0D, size: 0x8, addend: 0x0, symName: __ZNSt3__116allocator_traitsINS_9allocatorIP5StateEEE8max_sizeB8ue170006IS4_vEEmRKS4_, symObjAddr: 0x4806C, symBinAddr: 0x100049E34, symSize: 0x24 }
  - { offsetInCU: 0x2DE3B, offset: 0x2DE3B, size: 0x8, addend: 0x0, symName: __ZNKSt3__16vectorIP5StateNS_9allocatorIS2_EEE7__allocB8ue170006Ev, symObjAddr: 0x48090, symBinAddr: 0x100049E58, symSize: 0x28 }
  - { offsetInCU: 0x2DE61, offset: 0x2DE61, size: 0x8, addend: 0x0, symName: __ZNKSt3__19allocatorIP5StateE8max_sizeB8ue170006Ev, symObjAddr: 0x480B8, symBinAddr: 0x100049E80, symSize: 0x14 }
  - { offsetInCU: 0x2DE87, offset: 0x2DE87, size: 0x8, addend: 0x0, symName: __ZNKSt3__117__compressed_pairIPP5StateNS_9allocatorIS2_EEE6secondB8ue170006Ev, symObjAddr: 0x480CC, symBinAddr: 0x100049E94, symSize: 0x24 }
  - { offsetInCU: 0x2DEAD, offset: 0x2DEAD, size: 0x8, addend: 0x0, symName: __ZNKSt3__122__compressed_pair_elemINS_9allocatorIP5StateEELi1ELb1EE5__getB8ue170006Ev, symObjAddr: 0x480F0, symBinAddr: 0x100049EB8, symSize: 0x14 }
  - { offsetInCU: 0x2DED3, offset: 0x2DED3, size: 0x8, addend: 0x0, symName: __ZNSt3__114__split_bufferIP5StateRNS_9allocatorIS2_EEEC2EmmS5_, symObjAddr: 0x48104, symBinAddr: 0x100049ECC, symSize: 0x520 }
  - { offsetInCU: 0x2DF4E, offset: 0x2DF4E, size: 0x8, addend: 0x0, symName: __ZNSt3__117__compressed_pairIPP5StateRNS_9allocatorIS2_EEEC1B8ue170006IDnS6_EEOT_OT0_, symObjAddr: 0x48624, symBinAddr: 0x10004A3EC, symSize: 0x3C }
  - { offsetInCU: 0x2DFA6, offset: 0x2DFA6, size: 0x8, addend: 0x0, symName: __ZNSt3__114__split_bufferIP5StateRNS_9allocatorIS2_EEE7__allocB8ue170006Ev, symObjAddr: 0x488EC, symBinAddr: 0x10004A6B4, symSize: 0x28 }
  - { offsetInCU: 0x2DFCC, offset: 0x2DFCC, size: 0x8, addend: 0x0, symName: __ZNSt3__114__split_bufferIP5StateRNS_9allocatorIS2_EEE9__end_capB8ue170006Ev, symObjAddr: 0x48914, symBinAddr: 0x10004A6DC, symSize: 0x28 }
  - { offsetInCU: 0x2DFF2, offset: 0x2DFF2, size: 0x8, addend: 0x0, symName: __ZNSt3__117__compressed_pairIPP5StateRNS_9allocatorIS2_EEEC2B8ue170006IDnS6_EEOT_OT0_, symObjAddr: 0x4893C, symBinAddr: 0x10004A704, symSize: 0x48 }
  - { offsetInCU: 0x2E04A, offset: 0x2E04A, size: 0x8, addend: 0x0, symName: __ZNSt3__122__compressed_pair_elemIRNS_9allocatorIP5StateEELi1ELb0EEC2B8ue170006IS5_vEEOT_, symObjAddr: 0x48984, symBinAddr: 0x10004A74C, symSize: 0x70 }
  - { offsetInCU: 0x2E08C, offset: 0x2E08C, size: 0x8, addend: 0x0, symName: __ZNSt3__19allocatorIP5StateE8allocateB8ue170006Em, symObjAddr: 0x489F4, symBinAddr: 0x10004A7BC, symSize: 0x88 }
  - { offsetInCU: 0x2E0C0, offset: 0x2E0C0, size: 0x8, addend: 0x0, symName: __ZNSt3__117__compressed_pairIPP5StateRNS_9allocatorIS2_EEE6secondB8ue170006Ev, symObjAddr: 0x48A7C, symBinAddr: 0x10004A844, symSize: 0x28 }
  - { offsetInCU: 0x2E0E6, offset: 0x2E0E6, size: 0x8, addend: 0x0, symName: __ZNSt3__122__compressed_pair_elemIRNS_9allocatorIP5StateEELi1ELb0EE5__getB8ue170006Ev, symObjAddr: 0x48AA4, symBinAddr: 0x10004A86C, symSize: 0x60 }
  - { offsetInCU: 0x2E10C, offset: 0x2E10C, size: 0x8, addend: 0x0, symName: __ZNSt3__117__compressed_pairIPP5StateRNS_9allocatorIS2_EEE5firstB8ue170006Ev, symObjAddr: 0x48B04, symBinAddr: 0x10004A8CC, symSize: 0x24 }
  - { offsetInCU: 0x2E132, offset: 0x2E132, size: 0x8, addend: 0x0, symName: __ZNSt3__116reverse_iteratorIPP5StateEC1B8ue170006ES3_, symObjAddr: 0x49078, symBinAddr: 0x10004AE40, symSize: 0x34 }
  - { offsetInCU: 0x2E16A, offset: 0x2E16A, size: 0x8, addend: 0x0, symName: __ZNKSt3__116reverse_iteratorIPP5StateE4baseB8ue170006Ev, symObjAddr: 0x490AC, symBinAddr: 0x10004AE74, symSize: 0x64 }
  - { offsetInCU: 0x2E190, offset: 0x2E190, size: 0x8, addend: 0x0, symName: __ZNKSt3__16vectorIP5StateNS_9allocatorIS2_EEE14__annotate_newB8ue170006Em, symObjAddr: 0x49244, symBinAddr: 0x10004B00C, symSize: 0xD4 }
  - { offsetInCU: 0x2E1C5, offset: 0x2E1C5, size: 0x8, addend: 0x0, symName: __ZNKSt3__116reverse_iteratorIPP5StateEdeB8ue170006Ev, symObjAddr: 0x4943C, symBinAddr: 0x10004B204, symSize: 0x74 }
  - { offsetInCU: 0x2E1F9, offset: 0x2E1F9, size: 0x8, addend: 0x0, symName: __ZNSt3__116reverse_iteratorIPP5StateEppB8ue170006Ev, symObjAddr: 0x494B0, symBinAddr: 0x10004B278, symSize: 0x6C }
  - { offsetInCU: 0x2E224, offset: 0x2E224, size: 0x8, addend: 0x0, symName: __ZNSt3__119__to_address_helperINS_16reverse_iteratorIPP5StateEEvE6__callB8ue170006ERKS5_, symObjAddr: 0x499CC, symBinAddr: 0x10004B794, symSize: 0x58 }
  - { offsetInCU: 0x2E247, offset: 0x2E247, size: 0x8, addend: 0x0, symName: __ZNKSt3__116reverse_iteratorIPP5StateEptB8ue170006Ev, symObjAddr: 0x49A24, symBinAddr: 0x10004B7EC, symSize: 0x24 }
  - { offsetInCU: 0x2E287, offset: 0x2E287, size: 0x8, addend: 0x0, symName: __ZNKSt3__111__move_loopINS_17_ClassicAlgPolicyEEclB8ue170006INS_16reverse_iteratorIPP5StateEES8_S8_EENS_4pairIT_T1_EESA_T0_SB_, symObjAddr: 0x4AF58, symBinAddr: 0x10004CD20, symSize: 0x3A8 }
  - { offsetInCU: 0x2E305, offset: 0x2E305, size: 0x8, addend: 0x0, symName: __ZNSt3__18_IterOpsINS_17_ClassicAlgPolicyEE11__iter_moveB8ue170006IRNS_16reverse_iteratorIPP5StateEEEENS_9enable_ifIXsr12is_referenceIDTdeclsr3stdE7declvalIRT_EEEEE5valueEDTclsr3stdE4movedeclsr3stdE7declvalISC_EEEEE4typeEOSB_, symObjAddr: 0x4BDF4, symBinAddr: 0x10004DBBC, symSize: 0x28 }
  - { offsetInCU: 0x2E331, offset: 0x2E331, size: 0x8, addend: 0x0, symName: __ZNSt3__18_IterOpsINS_17_ClassicAlgPolicyEE25__validate_iter_referenceB8ue170006IRNS_16reverse_iteratorIPP5StateEEEEvv, symObjAddr: 0x4BE1C, symBinAddr: 0x10004DBE4, symSize: 0x4 }
  - { offsetInCU: 0x2E34F, offset: 0x2E34F, size: 0x8, addend: 0x0, symName: __ZNSt3__118__unwrap_iter_implINS_16reverse_iteratorIPP5StateEELb0EE8__unwrapB8ue170006ES5_, symObjAddr: 0x4BE20, symBinAddr: 0x10004DBE8, symSize: 0x274 }
  - { offsetInCU: 0x2E376, offset: 0x2E376, size: 0x8, addend: 0x0, symName: __ZNSt3__14pairINS_16reverse_iteratorIPP5StateEES5_EC1B8ue170006ERKS5_S8_, symObjAddr: 0x4C094, symBinAddr: 0x10004DE5C, symSize: 0x3C }
  - { offsetInCU: 0x2E3BC, offset: 0x2E3BC, size: 0x8, addend: 0x0, symName: __ZNSt3__14pairINS_16reverse_iteratorIPP5StateEES5_EC2B8ue170006ERKS5_S8_, symObjAddr: 0x4C0D0, symBinAddr: 0x10004DE98, symSize: 0x54 }
  - { offsetInCU: 0x2E402, offset: 0x2E402, size: 0x8, addend: 0x0, symName: __ZNSt3__118__unwrap_iter_implINS_16reverse_iteratorIPP5StateEELb0EE8__rewrapB8ue170006ES5_S5_, symObjAddr: 0x4C124, symBinAddr: 0x10004DEEC, symSize: 0x2E0 }
  - { offsetInCU: 0x2E437, offset: 0x2E437, size: 0x8, addend: 0x0, symName: __ZNSt3__116reverse_iteratorIPP5StateEC2B8ue170006ES3_, symObjAddr: 0x4C404, symBinAddr: 0x10004E1CC, symSize: 0xB8 }
  - { offsetInCU: 0x2E46F, offset: 0x2E46F, size: 0x8, addend: 0x0, symName: __ZNSt3__114__split_bufferIP5StateRNS_9allocatorIS2_EEED2Ev, symObjAddr: 0x4C4BC, symBinAddr: 0x10004E284, symSize: 0xEC }
  - { offsetInCU: 0x2E49B, offset: 0x2E49B, size: 0x8, addend: 0x0, symName: __ZNSt3__114__split_bufferIP5StateRNS_9allocatorIS2_EEE5clearB8ue170006Ev, symObjAddr: 0x4C5A8, symBinAddr: 0x10004E370, symSize: 0x68 }
  - { offsetInCU: 0x2E4C1, offset: 0x2E4C1, size: 0x8, addend: 0x0, symName: __ZNKSt3__114__split_bufferIP5StateRNS_9allocatorIS2_EEE8capacityB8ue170006Ev, symObjAddr: 0x4C610, symBinAddr: 0x10004E3D8, symSize: 0xBC }
  - { offsetInCU: 0x2E4E7, offset: 0x2E4E7, size: 0x8, addend: 0x0, symName: __ZNSt3__114__split_bufferIP5StateRNS_9allocatorIS2_EEE17__destruct_at_endB8ue170006EPS2_, symObjAddr: 0x4C6CC, symBinAddr: 0x10004E494, symSize: 0x2C }
  - { offsetInCU: 0x2E51B, offset: 0x2E51B, size: 0x8, addend: 0x0, symName: __ZNSt3__114__split_bufferIP5StateRNS_9allocatorIS2_EEE17__destruct_at_endB8ue170006EPS2_NS_17integral_constantIbLb0EEE, symObjAddr: 0x4C6F8, symBinAddr: 0x10004E4C0, symSize: 0x120 }
  - { offsetInCU: 0x2E55B, offset: 0x2E55B, size: 0x8, addend: 0x0, symName: __ZNKSt3__114__split_bufferIP5StateRNS_9allocatorIS2_EEE9__end_capB8ue170006Ev, symObjAddr: 0x4C818, symBinAddr: 0x10004E5E0, symSize: 0x28 }
  - { offsetInCU: 0x2E581, offset: 0x2E581, size: 0x8, addend: 0x0, symName: __ZNKSt3__117__compressed_pairIPP5StateRNS_9allocatorIS2_EEE5firstB8ue170006Ev, symObjAddr: 0x4C840, symBinAddr: 0x10004E608, symSize: 0x24 }
  - { offsetInCU: 0x2E5A7, offset: 0x2E5A7, size: 0x8, addend: 0x0, symName: __ZNSt3__16vectorIP5StateNS_9allocatorIS2_EEE22__construct_one_at_endB8ue170006IJS2_EEEvDpOT_, symObjAddr: 0x4C864, symBinAddr: 0x10004E62C, symSize: 0x380 }
  - { offsetInCU: 0x2E5FC, offset: 0x2E5FC, size: 0x8, addend: 0x0, symName: __ZNSt3__16vectorIP5StateNS_9allocatorIS2_EEE21__push_back_slow_pathIS2_EEvOT_, symObjAddr: 0x4CBE4, symBinAddr: 0x10004E9AC, symSize: 0x3D4 }
  - { offsetInCU: 0x2E661, offset: 0x2E661, size: 0x8, addend: 0x0, symName: __ZNSt3__116allocator_traitsINS_9allocatorIP5StateEEE9constructB8ue170006IS3_JS3_EvEEvRS4_PT_DpOT0_, symObjAddr: 0x4CFB8, symBinAddr: 0x10004ED80, symSize: 0x34 }
  - { offsetInCU: 0x2E6B8, offset: 0x2E6B8, size: 0x8, addend: 0x0, symName: __ZNSt3__19allocatorIP5StateE9constructB8ue170006IS2_JS2_EEEvPT_DpOT0_, symObjAddr: 0x4CFEC, symBinAddr: 0x10004EDB4, symSize: 0xB4 }
  - { offsetInCU: 0x2E70E, offset: 0x2E70E, size: 0x8, addend: 0x0, symName: __ZNSt3__16__treeIP5StateNS_4lessIS2_EENS_9allocatorIS2_EEE5clearEv, symObjAddr: 0x4D0A0, symBinAddr: 0x10004EE68, symSize: 0x118 }
  - { offsetInCU: 0x2E736, offset: 0x2E736, size: 0x8, addend: 0x0, symName: __ZNSt3__16vectorIP5StateNS_9allocatorIS2_EEE19__copy_assign_allocB8ue170006ERKS5_, symObjAddr: 0x4D1B8, symBinAddr: 0x10004EF80, symSize: 0x2C }
  - { offsetInCU: 0x2E76B, offset: 0x2E76B, size: 0x8, addend: 0x0, symName: __ZNSt3__16vectorIP5StateNS_9allocatorIS2_EEE6assignIPS2_Li0EEEvT_S8_, symObjAddr: 0x4D1E4, symBinAddr: 0x10004EFAC, symSize: 0x5C }
  - { offsetInCU: 0x2E7C0, offset: 0x2E7C0, size: 0x8, addend: 0x0, symName: __ZNSt3__16vectorIP5StateNS_9allocatorIS2_EEE19__copy_assign_allocB8ue170006ERKS5_NS_17integral_constantIbLb0EEE, symObjAddr: 0x4D240, symBinAddr: 0x10004F008, symSize: 0x14 }
  - { offsetInCU: 0x2E7FC, offset: 0x2E7FC, size: 0x8, addend: 0x0, symName: __ZNSt3__16vectorIP5StateNS_9allocatorIS2_EEE18__assign_with_sizeB8ue170006IPS2_S7_EEvT_T0_l, symObjAddr: 0x4D254, symBinAddr: 0x10004F01C, symSize: 0x3EC }
  - { offsetInCU: 0x2E8B3, offset: 0x2E8B3, size: 0x8, addend: 0x0, symName: __ZNSt3__16vectorIP5StateNS_9allocatorIS2_EEE18__construct_at_endIPS2_S7_EEvT_T0_m, symObjAddr: 0x4DAF8, symBinAddr: 0x10004F8C0, symSize: 0x394 }
  - { offsetInCU: 0x2E931, offset: 0x2E931, size: 0x8, addend: 0x0, symName: __ZNSt3__16vectorIP5StateNS_9allocatorIS2_EEE17__destruct_at_endB8ue170006EPS2_, symObjAddr: 0x4E0B8, symBinAddr: 0x10004FE80, symSize: 0x4C }
  - { offsetInCU: 0x2E975, offset: 0x2E975, size: 0x8, addend: 0x0, symName: __ZNSt3__16vectorIP5StateNS_9allocatorIS2_EEE13__vdeallocateEv, symObjAddr: 0x4E104, symBinAddr: 0x10004FECC, symSize: 0x194 }
  - { offsetInCU: 0x2E99D, offset: 0x2E99D, size: 0x8, addend: 0x0, symName: __ZNSt3__16vectorIP5StateNS_9allocatorIS2_EEE11__vallocateB8ue170006Em, symObjAddr: 0x4E298, symBinAddr: 0x100050060, symSize: 0x420 }
  - { offsetInCU: 0x2EA01, offset: 0x2EA01, size: 0x8, addend: 0x0, symName: __ZNSt3__14pairIPP5StateS3_EC1B8ue170006ERKS3_S6_, symObjAddr: 0x4F554, symBinAddr: 0x10005131C, symSize: 0x3C }
  - { offsetInCU: 0x2EA47, offset: 0x2EA47, size: 0x8, addend: 0x0, symName: __ZNSt3__14pairIPP5StateS3_EC2B8ue170006ERKS3_S6_, symObjAddr: 0x4F590, symBinAddr: 0x100051358, symSize: 0x138 }
  - { offsetInCU: 0x2EA8D, offset: 0x2EA8D, size: 0x8, addend: 0x0, symName: __ZNSt3__129_AllocatorDestroyRangeReverseINS_9allocatorIP5StateEEPS3_EC1B8ue170006ERS4_RS5_S8_, symObjAddr: 0x4F8C0, symBinAddr: 0x100051688, symSize: 0x44 }
  - { offsetInCU: 0x2EAE4, offset: 0x2EAE4, size: 0x8, addend: 0x0, symName: __ZNSt3__116allocator_traitsINS_9allocatorIP5StateEEE9constructB8ue170006IS3_JRS3_EvEEvRS4_PT_DpOT0_, symObjAddr: 0x4F904, symBinAddr: 0x1000516CC, symSize: 0x34 }
  - { offsetInCU: 0x2EB3B, offset: 0x2EB3B, size: 0x8, addend: 0x0, symName: __ZNSt3__128__exception_guard_exceptionsINS_29_AllocatorDestroyRangeReverseINS_9allocatorIP5StateEEPS4_EEE10__completeB8ue170006Ev, symObjAddr: 0x4F938, symBinAddr: 0x100051700, symSize: 0x8C }
  - { offsetInCU: 0x2EB61, offset: 0x2EB61, size: 0x8, addend: 0x0, symName: __ZNSt3__128__exception_guard_exceptionsINS_29_AllocatorDestroyRangeReverseINS_9allocatorIP5StateEEPS4_EEED1B8ue170006Ev, symObjAddr: 0x4F9C4, symBinAddr: 0x10005178C, symSize: 0x2C }
  - { offsetInCU: 0x2EB8B, offset: 0x2EB8B, size: 0x8, addend: 0x0, symName: __ZNSt3__128__exception_guard_exceptionsINS_29_AllocatorDestroyRangeReverseINS_9allocatorIP5StateEEPS4_EEEC1B8ue170006ES7_, symObjAddr: 0x4F9F0, symBinAddr: 0x1000517B8, symSize: 0x34 }
  - { offsetInCU: 0x2EBC4, offset: 0x2EBC4, size: 0x8, addend: 0x0, symName: __ZNSt3__128__exception_guard_exceptionsINS_29_AllocatorDestroyRangeReverseINS_9allocatorIP5StateEEPS4_EEEC2B8ue170006ES7_, symObjAddr: 0x4FA24, symBinAddr: 0x1000517EC, symSize: 0xA4 }
  - { offsetInCU: 0x2EBFD, offset: 0x2EBFD, size: 0x8, addend: 0x0, symName: __ZNSt3__129_AllocatorDestroyRangeReverseINS_9allocatorIP5StateEEPS3_EC2B8ue170006ERS4_RS5_S8_, symObjAddr: 0x4FAC8, symBinAddr: 0x100051890, symSize: 0x104 }
  - { offsetInCU: 0x2EC54, offset: 0x2EC54, size: 0x8, addend: 0x0, symName: __ZNSt3__19allocatorIP5StateE9constructB8ue170006IS2_JRS2_EEEvPT_DpOT0_, symObjAddr: 0x4FBCC, symBinAddr: 0x100051994, symSize: 0xB4 }
  - { offsetInCU: 0x2ECAA, offset: 0x2ECAA, size: 0x8, addend: 0x0, symName: __ZNSt3__128__exception_guard_exceptionsINS_29_AllocatorDestroyRangeReverseINS_9allocatorIP5StateEEPS4_EEED2B8ue170006Ev, symObjAddr: 0x4FC80, symBinAddr: 0x100051A48, symSize: 0xA8 }
  - { offsetInCU: 0x2ECD4, offset: 0x2ECD4, size: 0x8, addend: 0x0, symName: __ZNKSt3__129_AllocatorDestroyRangeReverseINS_9allocatorIP5StateEEPS3_EclB8ue170006Ev, symObjAddr: 0x4FD28, symBinAddr: 0x100051AF0, symSize: 0x39C }
  - { offsetInCU: 0x2ECFB, offset: 0x2ECFB, size: 0x8, addend: 0x0, symName: __ZNSt3__118__unwrap_iter_implIPP5StateLb1EE8__unwrapB8ue170006ES3_, symObjAddr: 0x5037C, symBinAddr: 0x100052144, symSize: 0x24 }
  - { offsetInCU: 0x2ED1E, offset: 0x2ED1E, size: 0x8, addend: 0x0, symName: __ZNSt3__118__unwrap_iter_implIPP5StateLb1EE8__rewrapB8ue170006ES3_S3_, symObjAddr: 0x503A0, symBinAddr: 0x100052168, symSize: 0x50 }
  - { offsetInCU: 0x2ED59, offset: 0x2ED59, size: 0x8, addend: 0x0, symName: __ZNKSt3__114__copy_trivialclB8ue170006IP5StateS3_Li0EEENS_4pairIPT_PT0_EES6_S6_S8_, symObjAddr: 0x50BC0, symBinAddr: 0x100052988, symSize: 0x230 }
  - { offsetInCU: 0x2EDC5, offset: 0x2EDC5, size: 0x8, addend: 0x0, symName: __ZNSt3__16vectorIP5StateNS_9allocatorIS2_EEE11__make_iterB8ue170006EPS2_, symObjAddr: 0x514B4, symBinAddr: 0x10005327C, symSize: 0x1FC }
  - { offsetInCU: 0x2EDFC, offset: 0x2EDFC, size: 0x8, addend: 0x0, symName: __ZNSt3__111__wrap_iterIPP5StateEC1B8ue170006ES3_, symObjAddr: 0x516B0, symBinAddr: 0x100053478, symSize: 0x34 }
  - { offsetInCU: 0x2EE34, offset: 0x2EE34, size: 0x8, addend: 0x0, symName: __ZNSt3__111__wrap_iterIPP5StateEC2B8ue170006ES3_, symObjAddr: 0x516E4, symBinAddr: 0x1000534AC, symSize: 0x70 }
  - { offsetInCU: 0x2EE6C, offset: 0x2EE6C, size: 0x8, addend: 0x0, symName: __ZNKSt3__111__wrap_iterIPP5StateE4baseB8ue170006Ev, symObjAddr: 0x5179C, symBinAddr: 0x100053564, symSize: 0x60 }
  - { offsetInCU: 0x2EE92, offset: 0x2EE92, size: 0x8, addend: 0x0, symName: __ZNSt3__111__wrap_iterIPP5StateEppB8ue170006Ev, symObjAddr: 0x517FC, symBinAddr: 0x1000535C4, symSize: 0x68 }
  - { offsetInCU: 0x2EEB8, offset: 0x2EEB8, size: 0x8, addend: 0x0, symName: __ZNSt3__112basic_stringIcNS_11char_traitsIcEENS_9allocatorIcEEEC2B8ue170006ILi0EEEPKc, symObjAddr: 0x51864, symBinAddr: 0x10005362C, symSize: 0x210 }
...
